(dp0
I0
(iasset
Asset
p1
(dp2
S'_vertical'
p3
VQueen Sized Beds
p4
sS'_price'
p5
I2099
sS'_category'
p6
VFurniture
p7
sS'_dimension'
p8
(dp9
S'width'
p10
F6.42
sS'depth'
p11
F7.42
sS'height'
p12
F3.08
ssS'_subcategory'
p13
VBeds
p14
sbsI1
(iasset
Asset
p15
(dp16
g3
VBedside Tables
p17
sg5
F236.99
sg6
g7
sg8
(dp18
g10
F1.67
sg11
F1.33
sg12
F1.83
ssg13
VTables
p19
sbsI2
(iasset
Asset
p20
(dp21
g3
g17
sg5
I449
sg6
g7
sg8
(dp22
g10
F1.92
sg11
F1.52
sg12
F2.08
ssg13
g19
sbsI3
(iasset
Asset
p23
(dp24
g3
Vsofa sets
p25
sg5
I499
sg6
g7
sg8
(dp26
g10
F1.67
sg11
F2.5
sg12
F2.5
ssg13
VSofas
p27
sbsI4
(iasset
Asset
p28
(dp29
g3
VChest of Drawers
p30
sg5
I1099
sg6
g7
sg8
(dp31
g10
F2.67
sg11
F1.67
sg12
F4.23
ssg13
VDrawers
p32
sbsI5
(iasset
Asset
p33
(dp34
g3
VCoffee Tables
p35
sg5
I210
sg6
g7
sg8
(dp36
g10
F2.96
sg11
F2.96
sg12
F1.5
ssg13
g19
sbsI6
(iasset
Asset
p37
(dp38
g3
VEnd Tables
p39
sg5
I199
sg6
g7
sg8
(dp40
g10
F1.83
sg11
F1.33
sg12
F1.58
ssg13
g19
sbsI7
(iasset
Asset
p41
(dp42
g3
g25
sg5
I6495
sg6
g7
sg8
(dp43
g10
F0.83
sg11
F3.17
sg12
F2.5
ssg13
g27
sbsI8
(iasset
Asset
p44
(dp45
g3
g25
sg5
I6495
sg6
g7
sg8
(dp46
g10
F0.83
sg11
F3.17
sg12
F2.5
ssg13
g27
sbsI9
(iasset
Asset
p47
(dp48
g3
VConsole Tables
p49
sg5
I1850
sg6
g7
sg8
(dp50
g10
F4.83
sg11
F1.5
sg12
F2.5
ssg13
g19
sbsI10
(iasset
Asset
p51
(dp52
g3
g39
sg5
I399
sg6
g7
sg8
(dp53
g10
F1.25
sg11
F1.25
sg12
F1.92
ssg13
g19
sbsI11
(iasset
Asset
p54
(dp55
g3
g49
sg5
I2625
sg6
g7
sg8
(dp56
g10
I6
sg11
F1.17
sg12
F2.5
ssg13
g19
sbsI12
(iasset
Asset
p57
(dp58
g3
g49
sg5
I2050
sg6
g7
sg8
(dp59
g10
F5.92
sg11
F1.5
sg12
F0.22
ssg13
g19
sbsI13
(iasset
Asset
p60
(dp61
g3
g35
sg5
I2095
sg6
g7
sg8
(dp62
g10
I5
sg11
I4
sg12
F1.5
ssg13
g19
sbsI14
(iasset
Asset
p63
(dp64
g3
VCrockery Units
p65
sg5
I3395
sg6
g7
sg8
(dp66
g10
F3.92
sg11
F1.5
sg12
F7.58
ssg13
VDisplay Units
p67
sbsI15
(iasset
Asset
p68
(dp69
g3
g25
sg5
I2699
sg6
g7
sg8
(dp70
g10
F6.46
sg11
I3
sg12
F2.67
ssg13
g27
sbsI16
(iasset
Asset
p71
(dp72
g3
g49
sg5
I399
sg6
g7
sg8
(dp73
g10
F4.04
sg11
F1.38
sg12
F2.5
ssg13
g19
sbsI17
(iasset
Asset
p74
(dp75
g3
VAccent Chairs
p76
sg5
I974
sg6
g7
sg8
(dp77
g10
F2.33
sg11
F2.96
sg12
F2.42
ssg13
VChairs
p78
sbsI18
(iasset
Asset
p79
(dp80
g3
g39
sg5
I499
sg6
g7
sg8
(dp81
g10
F2.25
sg11
F1.42
sg12
F2.17
ssg13
g19
sbsI19
(iasset
Asset
p82
(dp83
g3
g35
sg5
I1099
sg6
g7
sg8
(dp84
g10
I5
sg11
F3.5
sg12
F1.58
ssg13
g19
sbsI20
(iasset
Asset
p85
(dp86
g3
g76
sg5
I2199
sg6
g7
sg8
(dp87
g10
F3.08
sg11
I2
sg12
F3.75
ssg13
g78
sbsI21
(iasset
Asset
p88
(dp89
g3
g49
sg5
I439
sg6
g7
sg8
(dp90
g10
F1.33
sg11
F5.25
sg12
F2.75
ssg13
g19
sbsI22
(iasset
Asset
p91
(dp92
g3
VTV Units
p93
sg5
I2610
sg6
g7
sg8
(dp94
g10
F6.33
sg11
F1.5
sg12
F1.5
ssg13
VTV Units
p95
sbsI23
(iasset
Asset
p96
(dp97
g3
VShowcase Units
p98
sg5
I1050
sg6
g7
sg8
(dp99
g10
F5.54
sg11
F1.54
sg12
F6.15
ssg13
g67
sbsI24
(iasset
Asset
p100
(dp101
g3
g35
sg5
I1399
sg6
g7
sg8
(dp102
g10
F4.92
sg11
F3.44
sg12
F1.73
ssg13
g19
sbsI25
(iasset
Asset
p103
(dp104
g3
g35
sg5
F239.4
sg6
g7
sg8
(dp105
g10
F2.65
sg11
F2.65
sg12
F0.13
ssg13
g19
sbsI26
(iasset
Asset
p106
(dp107
g3
g35
sg5
I799
sg6
g7
sg8
(dp108
g10
F5.58
sg11
F2.29
sg12
F1.15
ssg13
g19
sbsI27
(iasset
Asset
p109
(dp110
g3
g25
sg5
I1499
sg6
g7
sg8
(dp111
g10
F6.42
sg11
F2.92
sg12
F2.75
ssg13
g27
sbsI28
(iasset
Asset
p112
(dp113
g3
g35
sg5
I599
sg6
g7
sg8
(dp114
g10
F2.67
sg11
F2.67
sg12
F1.35
ssg13
g19
sbsI29
(iasset
Asset
p115
(dp116
g3
g25
sg5
I1299
sg6
g7
sg8
(dp117
g10
F6.33
sg11
F3.08
sg12
F2.67
ssg13
g27
sbsI30
(iasset
Asset
p118
(dp119
g3
g35
sg5
I599
sg6
g7
sg8
(dp120
g10
I3
sg11
I3
sg12
F1.38
ssg13
g19
sbsI31
(iasset
Asset
p121
(dp122
g3
g35
sg5
I119
sg6
g7
sg8
(dp123
g10
I3
sg11
I3
sg12
F1.58
ssg13
g19
sbsI32
(iasset
Asset
p124
(dp125
g3
g25
sg5
I1199
sg6
g7
sg8
(dp126
g10
I6
sg11
F2.75
sg12
F2.75
ssg13
g27
sbsI33
(iasset
Asset
p127
(dp128
g3
g98
sg5
I299
sg6
g7
sg8
(dp129
g10
F2.16
sg11
F0.66
sg12
F2.16
ssg13
g67
sbsI34
(iasset
Asset
p130
(dp131
g3
VSofa cum Beds
p132
sg5
I999
sg6
g7
sg8
(dp133
g10
F6.6
sg11
F3.29
sg12
F2.75
ssg13
g27
sbsI35
(iasset
Asset
p134
(dp135
g3
g35
sg5
I799
sg6
g7
sg8
(dp136
g10
I5
sg11
I2
sg12
F1.45
ssg13
g19
sbsI36
(iasset
Asset
p137
(dp138
g3
g35
sg5
I799
sg6
g7
sg8
(dp139
g10
I5
sg11
I2
sg12
F1.45
ssg13
g19
sbsI37
(iasset
Asset
p140
(dp141
g3
VArm Chairs
p142
sg5
I299
sg6
g7
sg8
(dp143
g10
F2.46
sg11
F2.58
sg12
F2.54
ssg13
g78
sbsI38
(iasset
Asset
p144
(dp145
g3
g35
sg5
I279
sg6
g7
sg8
(dp146
g10
I3
sg11
I3
sg12
F1.6
ssg13
g19
sbsI39
(iasset
Asset
p147
(dp148
g3
VOttomans
p149
sg5
I299
sg6
g7
sg8
(dp150
g10
F1.5
sg11
F1.5
sg12
F1.44
ssg13
g78
sbsI40
(iasset
Asset
p151
(dp152
g3
g149
sg5
I209
sg6
g7
sg8
(dp153
g10
F1.6
sg11
F1.16
sg12
F1.54
ssg13
g78
sbsI41
(iasset
Asset
p154
(dp155
g3
g93
sg5
I1299
sg6
g7
sg8
(dp156
g10
F5.6
sg11
F1.54
sg12
F1.83
ssg13
g95
sbsI42
(iasset
Asset
p157
(dp158
g3
g25
sg5
F629.99
sg6
g7
sg8
(dp159
g10
F7.17
sg11
F3.17
sg12
I3
ssg13
g27
sbsI43
(iasset
Asset
p160
(dp161
g3
g25
sg5
F218.99
sg6
g7
sg8
(dp162
g10
F4.34
sg11
F2.18
sg12
F2.61
ssg13
g27
sbsI44
(iasset
Asset
p163
(dp164
g3
g25
sg5
F266.99
sg6
g7
sg8
(dp165
g10
F3.61
sg11
F2.33
sg12
F2.53
ssg13
g27
sbsI45
(iasset
Asset
p166
(dp167
g3
g25
sg5
F349.99
sg6
g7
sg8
(dp168
g10
F4.63
sg11
F2.65
sg12
F2.57
ssg13
g27
sbsI46
(iasset
Asset
p169
(dp170
g3
g25
sg5
F393.99
sg6
g7
sg8
(dp171
g10
F7.2
sg11
F2.84
sg12
F2.65
ssg13
g27
sbsI47
(iasset
Asset
p172
(dp173
g3
g25
sg5
F659.99
sg6
g7
sg8
(dp174
g10
F7.49
sg11
F3.25
sg12
F3.34
ssg13
g27
sbsI48
(iasset
Asset
p175
(dp176
g3
g25
sg5
F359.99
sg6
g7
sg8
(dp177
g10
F5.08
sg11
F2.79
sg12
F2.92
ssg13
g27
sbsI49
(iasset
Asset
p178
(dp179
g3
g25
sg5
F499.99
sg6
g7
sg8
(dp180
g10
F4.81
sg11
F2.52
sg12
F4.16
ssg13
g27
sbsI50
(iasset
Asset
p181
(dp182
g3
g25
sg5
F625.99
sg6
g7
sg8
(dp183
g10
F7.16
sg11
F2.75
sg12
F2.96
ssg13
g27
sbsI51
(iasset
Asset
p184
(dp185
g3
g25
sg5
F191.99
sg6
g7
sg8
(dp186
g10
F3.75
sg11
F2.34
sg12
F2.24
ssg13
g27
sbsI52
(iasset
Asset
p187
(dp188
g3
g25
sg5
F322.99
sg6
g7
sg8
(dp189
g10
F4.48
sg11
F2.79
sg12
F2.71
ssg13
g27
sbsI53
(iasset
Asset
p190
(dp191
g3
g25
sg5
F569.99
sg6
g7
sg8
(dp192
g10
F5.87
sg11
F2.42
sg12
F2.71
ssg13
g27
sbsI54
(iasset
Asset
p193
(dp194
g3
g25
sg5
F749.99
sg6
g7
sg8
(dp195
g10
F6.67
sg11
F2.67
sg12
F2.71
ssg13
g27
sbsI55
(iasset
Asset
p196
(dp197
g3
g25
sg5
F925.99
sg6
g7
sg8
(dp198
g10
I6
sg11
F2.59
sg12
F2.75
ssg13
g27
sbsI56
(iasset
Asset
p199
(dp200
g3
g25
sg5
F269.99
sg6
g7
sg8
(dp201
g10
F3.73
sg11
F2.44
sg12
F2.61
ssg13
g27
sbsI57
(iasset
Asset
p202
(dp203
g3
g25
sg5
F589.99
sg6
g7
sg8
(dp204
g10
F7.37
sg11
F3.13
sg12
F3.23
ssg13
g27
sbsI58
(iasset
Asset
p205
(dp206
g3
g25
sg5
I829
sg6
g7
sg8
(dp207
g10
F7.17
sg11
F3.08
sg12
F2.67
ssg13
g27
sbsI59
(iasset
Asset
p208
(dp209
g3
g25
sg5
I1049
sg6
g7
sg8
(dp210
g10
F7.16
sg11
F3.23
sg12
F2.9
ssg13
g27
sbsI60
(iasset
Asset
p211
(dp212
g3
g25
sg5
F409.99
sg6
g7
sg8
(dp213
g10
F4.75
sg11
F2.5
sg12
F2.66
ssg13
g27
sbsI61
(iasset
Asset
p214
(dp215
g3
g25
sg5
F391.99
sg6
g7
sg8
(dp216
g10
F7.42
sg11
F3.26
sg12
F3.34
ssg13
g27
sbsI62
(iasset
Asset
p217
(dp218
g3
g149
sg5
F72.99
sg6
g7
sg8
(dp219
g10
F1.42
sg11
F1.42
sg12
F1.5
ssg13
g78
sbsI63
(iasset
Asset
p220
(dp221
g3
g149
sg5
F239.99
sg6
g7
sg8
(dp222
g10
F2.88
sg11
F2.85
sg12
F1.71
ssg13
g78
sbsI64
(iasset
Asset
p223
(dp224
g3
g149
sg5
F123.99
sg6
g7
sg8
(dp225
g10
F3.58
sg11
F1.83
sg12
F1.5
ssg13
g78
sbsI65
(iasset
Asset
p226
(dp227
g3
g149
sg5
F68.99
sg6
g7
sg8
(dp228
g10
F1.46
sg11
F1.45
sg12
F1.38
ssg13
g78
sbsI66
(iasset
Asset
p229
(dp230
g3
g149
sg5
F213.29
sg6
g7
sg8
(dp231
g10
F2.92
sg11
F2.92
sg12
F1.5
ssg13
g78
sbsI67
(iasset
Asset
p232
(dp233
g3
g149
sg5
F99.99
sg6
g7
sg8
(dp234
g10
F2.33
sg11
F1.58
sg12
F1.5
ssg13
g78
sbsI68
(iasset
Asset
p235
(dp236
g3
g149
sg5
F267.99
sg6
g7
sg8
(dp237
g10
F3.01
sg11
F3.01
sg12
F1.67
ssg13
g78
sbsI69
(iasset
Asset
p238
(dp239
g3
g149
sg5
F84.23
sg6
g7
sg8
(dp240
g10
F1.67
sg11
F1.67
sg12
F1.17
ssg13
g78
sbsI70
(iasset
Asset
p241
(dp242
g3
g149
sg5
F87.99
sg6
g7
sg8
(dp243
g10
I3
sg11
F1.5
sg12
F1.54
ssg13
g78
sbsI71
(iasset
Asset
p244
(dp245
g3
g149
sg5
F100.99
sg6
g7
sg8
(dp246
g10
F1.69
sg11
F1.71
sg12
F1.62
ssg13
g78
sbsI72
(iasset
Asset
p247
(dp248
g3
g149
sg5
F187.99
sg6
g7
sg8
(dp249
g10
F2.96
sg11
F2.96
sg12
F1.46
ssg13
g78
sbsI73
(iasset
Asset
p250
(dp251
g3
g149
sg5
F206.99
sg6
g7
sg8
(dp252
g10
F3.58
sg11
F1.92
sg12
F1.5
ssg13
g78
sbsI74
(iasset
Asset
p253
(dp254
g3
g149
sg5
F117.99
sg6
g7
sg8
(dp255
g10
F3.17
sg11
F1.58
sg12
F1.33
ssg13
g78
sbsI75
(iasset
Asset
p256
(dp257
g3
g149
sg5
F156.99
sg6
g7
sg8
(dp258
g10
I2
sg11
I2
sg12
F1.38
ssg13
g78
sbsI76
(iasset
Asset
p259
(dp260
g3
g149
sg5
F184.49
sg6
g7
sg8
(dp261
g10
I4
sg11
F2.29
sg12
F1.52
ssg13
g78
sbsI77
(iasset
Asset
p262
(dp263
g3
g149
sg5
F74.99
sg6
g7
sg8
(dp264
g10
F1.42
sg11
F1.42
sg12
F1.4
ssg13
g78
sbsI78
(iasset
Asset
p265
(dp266
g3
g149
sg5
F165.99
sg6
g7
sg8
(dp267
g10
F1.5
sg11
F1.26
sg12
F1.38
ssg13
g78
sbsI79
(iasset
Asset
p268
(dp269
g3
g149
sg5
F380.99
sg6
g7
sg8
(dp270
g10
F4.09
sg11
F2.67
sg12
F1.38
ssg13
g78
sbsI80
(iasset
Asset
p271
(dp272
g3
g149
sg5
F34.99
sg6
g7
sg8
(dp273
g10
F1.25
sg11
F1.25
sg12
F1.25
ssg13
g78
sbsI81
(iasset
Asset
p274
(dp275
g3
g149
sg5
F336.99
sg6
g7
sg8
(dp276
g10
F3.42
sg11
F3.42
sg12
F1.67
ssg13
g78
sbsI82
(iasset
Asset
p277
(dp278
g3
g65
sg5
F375.99
sg6
g7
sg8
(dp279
g10
F3.93
sg11
F1.71
sg12
I3
ssg13
g67
sbsI83
(iasset
Asset
p280
(dp281
g3
g65
sg5
F416.99
sg6
g7
sg8
(dp282
g10
F4.33
sg11
F2.08
sg12
I3
ssg13
g67
sbsI84
(iasset
Asset
p283
(dp284
g3
g65
sg5
F379.99
sg6
g7
sg8
(dp285
g10
F3.9
sg11
F1.67
sg12
I3
ssg13
g67
sbsI85
(iasset
Asset
p286
(dp287
g3
g65
sg5
F189.99
sg6
g7
sg8
(dp288
g10
F2.68
sg11
F1.36
sg12
F2.82
ssg13
g67
sbsI86
(iasset
Asset
p289
(dp290
g3
g65
sg5
F629.99
sg6
g7
sg8
(dp291
g10
I4
sg11
I2
sg12
F2.9
ssg13
g67
sbsI87
(iasset
Asset
p292
(dp293
g3
g65
sg5
F156.17
sg6
g7
sg8
(dp294
g10
F3.95
sg11
F1.42
sg12
F2.61
ssg13
g67
sbsI88
(iasset
Asset
p295
(dp296
g3
g65
sg5
F1409.99
sg6
g7
sg8
(dp297
g10
I5
sg11
F3.74
sg12
F3.69
ssg13
g67
sbsI89
(iasset
Asset
p298
(dp299
g3
g65
sg5
F325.7
sg6
g7
sg8
(dp300
g10
F4.33
sg11
F1.5
sg12
I3
ssg13
g67
sbsI90
(iasset
Asset
p301
(dp302
g3
g65
sg5
F125.99
sg6
g7
sg8
(dp303
g10
F3.75
sg11
F1.3
sg12
F2.91
ssg13
g67
sbsI91
(iasset
Asset
p304
(dp305
g3
g39
sg5
F48.99
sg6
g7
sg8
(dp306
g10
F1.58
sg11
F1.29
sg12
F1.62
ssg13
g19
sbsI92
(iasset
Asset
p307
(dp308
g3
g39
sg5
F35.99
sg6
g7
sg8
(dp309
g10
F1.12
sg11
F1.12
sg12
F1.67
ssg13
g19
sbsI93
(iasset
Asset
p310
(dp311
g3
g39
sg5
F72.99
sg6
g7
sg8
(dp312
g10
F0.83
sg11
F1.33
sg12
F2.11
ssg13
g19
sbsI94
(iasset
Asset
p313
(dp314
g3
g39
sg5
F82.99
sg6
g7
sg8
(dp315
g10
F1.57
sg11
F1.32
sg12
F2.15
ssg13
g19
sbsI95
(iasset
Asset
p316
(dp317
g3
g39
sg5
F203.99
sg6
g7
sg8
(dp318
g10
I2
sg11
I2
sg12
F2.01
ssg13
g19
sbsI96
(iasset
Asset
p319
(dp320
g3
g39
sg5
F122.99
sg6
g7
sg8
(dp321
g10
F1.16
sg11
F1.16
sg12
F1.47
ssg13
g19
sbsI97
(iasset
Asset
p322
(dp323
g3
g39
sg5
F118.99
sg6
g7
sg8
(dp324
g10
F1.67
sg11
F1.5
sg12
F1.62
ssg13
g19
sbsI98
(iasset
Asset
p325
(dp326
g3
g39
sg5
F87.85
sg6
g7
sg8
(dp327
g10
F1.19
sg11
F1.8
sg12
F1.99
ssg13
g19
sbsI99
(iasset
Asset
p328
(dp329
g3
g39
sg5
F79.99
sg6
g7
sg8
(dp330
g10
I2
sg11
I1
sg12
F1.83
ssg13
g19
sbsI100
(iasset
Asset
p331
(dp332
g3
g39
sg5
F122.1
sg6
g7
sg8
(dp333
g10
F1.68
sg11
F1.67
sg12
F1.64
ssg13
g19
sbsI101
(iasset
Asset
p334
(dp335
g3
g39
sg5
F124.42
sg6
g7
sg8
(dp336
g10
F1.42
sg11
F1.42
sg12
F1.93
ssg13
g19
sbsI102
(iasset
Asset
p337
(dp338
g3
g39
sg5
F163.99
sg6
g7
sg8
(dp339
g10
F2.17
sg11
F2.17
sg12
F2.21
ssg13
g19
sbsI103
(iasset
Asset
p340
(dp341
g3
g39
sg5
F143.99
sg6
g7
sg8
(dp342
g10
F1.96
sg11
F2.14
sg12
F2.58
ssg13
g19
sbsI104
(iasset
Asset
p343
(dp344
g3
g39
sg5
F101.99
sg6
g7
sg8
(dp345
g10
F1.47
sg11
F1.47
sg12
I2
ssg13
g19
sbsI105
(iasset
Asset
p346
(dp347
g3
g39
sg5
F68.99
sg6
g7
sg8
(dp348
g10
F1.31
sg11
F1.31
sg12
I2
ssg13
g19
sbsI106
(iasset
Asset
p349
(dp350
g3
g39
sg5
F54.99
sg6
g7
sg8
(dp351
g10
I1
sg11
I2
sg12
I2
ssg13
g19
sbsI107
(iasset
Asset
p352
(dp353
g3
g39
sg5
F134.99
sg6
g7
sg8
(dp354
g10
F1.06
sg11
F1.83
sg12
F1.9
ssg13
g19
sbsI108
(iasset
Asset
p355
(dp356
g3
g39
sg5
F88.99
sg6
g7
sg8
(dp357
g10
I1
sg11
I2
sg12
I2
ssg13
g19
sbsI109
(iasset
Asset
p358
(dp359
g3
g39
sg5
F57.99
sg6
g7
sg8
(dp360
g10
F1.29
sg11
F1.29
sg12
F1.46
ssg13
g19
sbsI110
(iasset
Asset
p361
(dp362
g3
g39
sg5
F38.59
sg6
g7
sg8
(dp363
g10
F1.24
sg11
F0.92
sg12
I2
ssg13
g19
sbsI111
(iasset
Asset
p364
(dp365
g3
VDining Tables
p366
sg5
F385.99
sg6
g7
sg8
(dp367
g10
F4.5
sg11
F4.5
sg12
F2.59
ssg13
VDining
p368
sbsI112
(iasset
Asset
p369
(dp370
g3
g366
sg5
F178.49
sg6
g7
sg8
(dp371
g10
F2.75
sg11
F3.5
sg12
F2.46
ssg13
g368
sbsI113
(iasset
Asset
p372
(dp373
g3
g366
sg5
F272.99
sg6
g7
sg8
(dp374
g10
F3.93
sg11
F3.93
sg12
F2.53
ssg13
g368
sbsI114
(iasset
Asset
p375
(dp376
g3
g366
sg5
F519.99
sg6
g7
sg8
(dp377
g10
F4.97
sg11
F3.5
sg12
F2.51
ssg13
g368
sbsI115
(iasset
Asset
p378
(dp379
g3
g366
sg5
I306
sg6
g7
sg8
(dp380
g10
I4
sg11
F1.5
sg12
F2.5
ssg13
g368
sbsI116
(iasset
Asset
p381
(dp382
g3
g366
sg5
F475.99
sg6
g7
sg8
(dp383
g10
F4.17
sg11
F4.17
sg12
F2.5
ssg13
g368
sbsI117
(iasset
Asset
p384
(dp385
g3
g366
sg5
F1099.99
sg6
g7
sg8
(dp386
g10
F9.33
sg11
F3.5
sg12
F2.5
ssg13
g368
sbsI118
(iasset
Asset
p387
(dp388
g3
g366
sg5
F581.75
sg6
g7
sg8
(dp389
g10
F5.46
sg11
I4
sg12
F2.52
ssg13
g368
sbsI119
(iasset
Asset
p390
(dp391
g3
g366
sg5
F511.99
sg6
g7
sg8
(dp392
g10
F5.88
sg11
F3.62
sg12
F2.46
ssg13
g368
sbsI120
(iasset
Asset
p393
(dp394
g3
g366
sg5
F293.99
sg6
g7
sg8
(dp395
g10
F4.92
sg11
F2.96
sg12
F2.47
ssg13
g368
sbsI121
(iasset
Asset
p396
(dp397
g3
g366
sg5
F167.99
sg6
g7
sg8
(dp398
g10
F3.29
sg11
F3.29
sg12
F2.48
ssg13
g368
sbsI122
(iasset
Asset
p399
(dp400
g3
g366
sg5
F383.99
sg6
g7
sg8
(dp401
g10
F5.92
sg11
F2.97
sg12
F2.48
ssg13
g368
sbsI123
(iasset
Asset
p402
(dp403
g3
g366
sg5
F793.99
sg6
g7
sg8
(dp404
g10
F3.29
sg11
F6.92
sg12
F2.5
ssg13
g368
sbsI124
(iasset
Asset
p405
(dp406
g3
g366
sg5
F385.99
sg6
g7
sg8
(dp407
g10
F5.25
sg11
I3
sg12
F2.58
ssg13
g368
sbsI125
(iasset
Asset
p408
(dp409
g3
g366
sg5
F153.99
sg6
g7
sg8
(dp410
g10
F3.93
sg11
F2.46
sg12
F2.42
ssg13
g368
sbsI126
(iasset
Asset
p411
(dp412
g3
VDining Chairs
p413
sg5
F187.99
sg6
g7
sg8
(dp414
g10
F1.56
sg11
F1.9
sg12
F3.28
ssg13
g368
sbsI127
(iasset
Asset
p415
(dp416
g3
g413
sg5
F155.99
sg6
g7
sg8
(dp417
g10
F1.59
sg11
F2.04
sg12
F3.14
ssg13
g368
sbsI128
(iasset
Asset
p418
(dp419
g3
g413
sg5
F121.99
sg6
g7
sg8
(dp420
g10
F3.12
sg11
F1.75
sg12
F2.71
ssg13
g368
sbsI129
(iasset
Asset
p421
(dp422
g3
g413
sg5
F203.99
sg6
g7
sg8
(dp423
g10
F2.08
sg11
F2.08
sg12
F2.58
ssg13
g368
sbsI130
(iasset
Asset
p424
(dp425
g3
g413
sg5
I207
sg6
g7
sg8
(dp426
g10
F1.88
sg11
F1.99
sg12
F3.17
ssg13
g368
sbsI131
(iasset
Asset
p427
(dp428
g3
g413
sg5
F156.99
sg6
g7
sg8
(dp429
g10
F2.01
sg11
F1.99
sg12
F2.65
ssg13
g368
sbsI132
(iasset
Asset
p430
(dp431
g3
g413
sg5
F157.99
sg6
g7
sg8
(dp432
g10
F1.59
sg11
F1.95
sg12
F3.16
ssg13
g368
sbsI133
(iasset
Asset
p433
(dp434
g3
g413
sg5
F202.99
sg6
g7
sg8
(dp435
g10
F1.53
sg11
F1.65
sg12
F2.87
ssg13
g368
sbsI134
(iasset
Asset
p436
(dp437
g3
g413
sg5
F253.99
sg6
g7
sg8
(dp438
g10
F1.62
sg11
I2
sg12
F2.85
ssg13
g368
sbsI135
(iasset
Asset
p439
(dp440
g3
g413
sg5
F127.99
sg6
g7
sg8
(dp441
g10
F1.36
sg11
F1.41
sg12
F3.21
ssg13
g368
sbsI136
(iasset
Asset
p442
(dp443
g3
g413
sg5
F95.5
sg6
g7
sg8
(dp444
g10
F1.71
sg11
F1.63
sg12
F2.87
ssg13
g368
sbsI137
(iasset
Asset
p445
(dp446
g3
g413
sg5
F60.99
sg6
g7
sg8
(dp447
g10
F4.26
sg11
F3.13
sg12
F3.19
ssg13
g368
sbsI138
(iasset
Asset
p448
(dp449
g3
g413
sg5
F130.99
sg6
g7
sg8
(dp450
g10
F1.51
sg11
F1.73
sg12
F2.77
ssg13
g368
sbsI139
(iasset
Asset
p451
(dp452
g3
g413
sg5
F199.99
sg6
g7
sg8
(dp453
g10
F1.54
sg11
F1.75
sg12
F2.71
ssg13
g368
sbsI140
(iasset
Asset
p454
(dp455
g3
g413
sg5
F60.89
sg6
g7
sg8
(dp456
g10
F1.54
sg11
F1.69
sg12
F2.65
ssg13
g368
sbsI141
(iasset
Asset
p457
(dp458
g3
g413
sg5
F75.99
sg6
g7
sg8
(dp459
g10
F2.04
sg11
F1.84
sg12
F2.66
ssg13
g368
sbsI142
(iasset
Asset
p460
(dp461
g3
g413
sg5
F149.99
sg6
g7
sg8
(dp462
g10
F1.49
sg11
F1.73
sg12
F2.95
ssg13
g368
sbsI143
(iasset
Asset
p463
(dp464
g3
g413
sg5
F106.78
sg6
g7
sg8
(dp465
g10
F1.79
sg11
F1.73
sg12
F3.04
ssg13
g368
sbsI144
(iasset
Asset
p466
(dp467
g3
g413
sg5
F212.99
sg6
g7
sg8
(dp468
g10
F1.71
sg11
F2.21
sg12
F3.22
ssg13
g368
sbsI145
(iasset
Asset
p469
(dp470
g3
g35
sg5
F172.99
sg6
g7
sg8
(dp471
g10
F3.93
sg11
F2.04
sg12
F1.33
ssg13
g19
sbsI146
(iasset
Asset
p472
(dp473
g3
g35
sg5
F256.99
sg6
g7
sg8
(dp474
g10
F3.5
sg11
F1.92
sg12
F1.5
ssg13
g19
sbsI147
(iasset
Asset
p475
(dp476
g3
g35
sg5
F109.88
sg6
g7
sg8
(dp477
g10
F3.5
sg11
I2
sg12
F1.5
ssg13
g19
sbsI148
(iasset
Asset
p478
(dp479
g3
g35
sg5
F255.99
sg6
g7
sg8
(dp480
g10
F3.91
sg11
F1.96
sg12
F1.33
ssg13
g19
sbsI149
(iasset
Asset
p481
(dp482
g3
g35
sg5
F120.99
sg6
g7
sg8
(dp483
g10
F3.94
sg11
F1.98
sg12
F1.5
ssg13
g19
sbsI150
(iasset
Asset
p484
(dp485
g3
g35
sg5
F179.99
sg6
g7
sg8
(dp486
g10
F3.56
sg11
F1.74
sg12
F1.55
ssg13
g19
sbsI151
(iasset
Asset
p487
(dp488
g3
g35
sg5
F147.99
sg6
g7
sg8
(dp489
g10
F3.67
sg11
F1.83
sg12
F1.67
ssg13
g19
sbsI152
(iasset
Asset
p490
(dp491
g3
g35
sg5
F194.7
sg6
g7
sg8
(dp492
g10
F3.58
sg11
F1.62
sg12
F1.56
ssg13
g19
sbsI153
(iasset
Asset
p493
(dp494
g3
g35
sg5
F108.38
sg6
g7
sg8
(dp495
g10
F3.5
sg11
F1.83
sg12
F1.5
ssg13
g19
sbsI154
(iasset
Asset
p496
(dp497
g3
g35
sg5
F182.99
sg6
g7
sg8
(dp498
g10
I3
sg11
I3
sg12
F1.5
ssg13
g19
sbsI155
(iasset
Asset
p499
(dp500
g3
g35
sg5
F124.14
sg6
g7
sg8
(dp501
g10
F3.02
sg11
F3.02
sg12
F1.59
ssg13
g19
sbsI156
(iasset
Asset
p502
(dp503
g3
g35
sg5
F215.99
sg6
g7
sg8
(dp504
g10
F2.95
sg11
F2.95
sg12
F1.05
ssg13
g19
sbsI157
(iasset
Asset
p505
(dp506
g3
g35
sg5
F124.69
sg6
g7
sg8
(dp507
g10
F3.5
sg11
F1.51
sg12
F1.54
ssg13
g19
sbsI158
(iasset
Asset
p508
(dp509
g3
g35
sg5
F195.99
sg6
g7
sg8
(dp510
g10
F2.85
sg11
F2.85
sg12
F1.31
ssg13
g19
sbsI159
(iasset
Asset
p511
(dp512
g3
g35
sg5
F260.99
sg6
g7
sg8
(dp513
g10
F3.94
sg11
F1.98
sg12
F1.5
ssg13
g19
sbsI160
(iasset
Asset
p514
(dp515
g3
g35
sg5
F320.5
sg6
g7
sg8
(dp516
g10
F3.33
sg11
F3.32
sg12
F1.5
ssg13
g19
sbsI161
(iasset
Asset
p517
(dp518
g3
g35
sg5
F186.68
sg6
g7
sg8
(dp519
g10
F2.86
sg11
F2.85
sg12
F1.36
ssg13
g19
sbsI162
(iasset
Asset
p520
(dp521
g3
g35
sg5
F134.99
sg6
g7
sg8
(dp522
g10
F2.67
sg11
F2.67
sg12
F1.5
ssg13
g19
sbsI163
(iasset
Asset
p523
(dp524
g3
g35
sg5
F313.99
sg6
g7
sg8
(dp525
g10
F3.83
sg11
F2.17
sg12
F1.67
ssg13
g19
sbsI164
(iasset
Asset
p526
(dp527
g3
g35
sg5
F189.99
sg6
g7
sg8
(dp528
g10
F2.96
sg11
F2.96
sg12
F1.5
ssg13
g19
sbsI165
(iasset
Asset
p529
(dp530
g3
VBookshelves
p531
sg5
F143.99
sg6
g7
sg8
(dp532
g10
F2.1
sg11
F1.51
sg12
I5
ssg13
g67
sbsI166
(iasset
Asset
p533
(dp534
g3
g531
sg5
F61.99
sg6
g7
sg8
(dp535
g10
F1.83
sg11
F1.21
sg12
F5.83
ssg13
g67
sbsI167
(iasset
Asset
p536
(dp537
g3
g531
sg5
F157.99
sg6
g7
sg8
(dp538
g10
F2.64
sg11
F1.06
sg12
F5.5
ssg13
g67
sbsI168
(iasset
Asset
p539
(dp540
g3
g531
sg5
F215.99
sg6
g7
sg8
(dp541
g10
F4.4
sg11
F1.08
sg12
F3.93
ssg13
g67
sbsI169
(iasset
Asset
p542
(dp543
g3
g531
sg5
F154.68
sg6
g7
sg8
(dp544
g10
F2.91
sg11
I1
sg12
F5.9
ssg13
g67
sbsI170
(iasset
Asset
p545
(dp546
g3
g531
sg5
F206.99
sg6
g7
sg8
(dp547
g10
F3.34
sg11
F1.08
sg12
I6
ssg13
g67
sbsI171
(iasset
Asset
p548
(dp549
g3
g531
sg5
F97.99
sg6
g7
sg8
(dp550
g10
F1.96
sg11
F0.97
sg12
F4.73
ssg13
g67
sbsI172
(iasset
Asset
p551
(dp552
g3
g531
sg5
F98.99
sg6
g7
sg8
(dp553
g10
F3.96
sg11
F0.97
sg12
F2.99
ssg13
g67
sbsI173
(iasset
Asset
p554
(dp555
g3
g531
sg5
F93.79
sg6
g7
sg8
(dp556
g10
F2.62
sg11
F0.98
sg12
F2.71
ssg13
g67
sbsI174
(iasset
Asset
p557
(dp558
g3
g76
sg5
F145.99
sg6
g7
sg8
(dp559
g10
F1.83
sg11
F2.48
sg12
F2.75
ssg13
g78
sbsI175
(iasset
Asset
p560
(dp561
g3
g76
sg5
F174.99
sg6
g7
sg8
(dp562
g10
F2.86
sg11
F2.32
sg12
F2.71
ssg13
g78
sbsI176
(iasset
Asset
p563
(dp564
g3
g76
sg5
F299.99
sg6
g7
sg8
(dp565
g10
F2.39
sg11
F2.07
sg12
F2.92
ssg13
g78
sbsI177
(iasset
Asset
p566
(dp567
g3
g76
sg5
F343.99
sg6
g7
sg8
(dp568
g10
F2.48
sg11
F2.79
sg12
F2.76
ssg13
g78
sbsI178
(iasset
Asset
p569
(dp570
g3
g76
sg5
F178.99
sg6
g7
sg8
(dp571
g10
F2.43
sg11
F2.2
sg12
F2.67
ssg13
g78
sbsI179
(iasset
Asset
p572
(dp573
g3
g76
sg5
F169.99
sg6
g7
sg8
(dp574
g10
F2.56
sg11
F2.29
sg12
F2.68
ssg13
g78
sbsI180
(iasset
Asset
p575
(dp576
g3
g76
sg5
F376.99
sg6
g7
sg8
(dp577
g10
F2.39
sg11
F2.75
sg12
F2.62
ssg13
g78
sbsI181
(iasset
Asset
p578
(dp579
g3
g76
sg5
F1199.99
sg6
g7
sg8
(dp580
g10
F3.05
sg11
F3.08
sg12
F3.77
ssg13
g78
sbsI182
(iasset
Asset
p581
(dp582
g3
g76
sg5
F423.99
sg6
g7
sg8
(dp583
g10
F2.44
sg11
F2.5
sg12
F3.28
ssg13
g78
sbsI183
(iasset
Asset
p584
(dp585
g3
g76
sg5
F329.99
sg6
g7
sg8
(dp586
g10
F1.84
sg11
F2.37
sg12
F2.88
ssg13
g78
sbsI184
(iasset
Asset
p587
(dp588
g3
g76
sg5
F204.99
sg6
g7
sg8
(dp589
g10
F2.07
sg11
F2.61
sg12
F2.62
ssg13
g78
sbsI185
(iasset
Asset
p590
(dp591
g3
g76
sg5
F365.99
sg6
g7
sg8
(dp592
g10
F2.69
sg11
F2.54
sg12
F2.67
ssg13
g78
sbsI186
(iasset
Asset
p593
(dp594
g3
g76
sg5
F135.99
sg6
g7
sg8
(dp595
g10
F2.06
sg11
F2.39
sg12
F2.67
ssg13
g78
sbsI187
(iasset
Asset
p596
(dp597
g3
g76
sg5
F186.99
sg6
g7
sg8
(dp598
g10
F2.42
sg11
F2.49
sg12
F2.46
ssg13
g78
sbsI188
(iasset
Asset
p599
(dp600
g3
g76
sg5
F278.99
sg6
g7
sg8
(dp601
g10
F2.24
sg11
F2.14
sg12
F2.27
ssg13
g78
sbsI189
(iasset
Asset
p602
(dp603
g3
g76
sg5
F213.99
sg6
g7
sg8
(dp604
g10
F2.35
sg11
F2.62
sg12
F2.73
ssg13
g78
sbsI190
(iasset
Asset
p605
(dp606
g3
g76
sg5
F266.99
sg6
g7
sg8
(dp607
g10
F2.14
sg11
F2.11
sg12
F2.95
ssg13
g78
sbsI191
(iasset
Asset
p608
(dp609
g3
g76
sg5
F379.99
sg6
g7
sg8
(dp610
g10
F2.17
sg11
F1.82
sg12
F2.69
ssg13
g78
sbsI192
(iasset
Asset
p611
(dp612
g3
g76
sg5
F339.99
sg6
g7
sg8
(dp613
g10
F3.83
sg11
F3.67
sg12
F3.17
ssg13
g78
sbsI193
(iasset
Asset
p614
(dp615
g3
g93
sg5
F83.99
sg6
g7
sg8
(dp616
g10
F4.05
sg11
F1.15
sg12
F1.25
ssg13
g95
sbsI194
(iasset
Asset
p617
(dp618
g3
g25
sg5
I1799
sg6
g7
sg8
(dp619
g10
F8.5
sg11
I3
sg12
I3
ssg13
g27
sbsI195
(iasset
Asset
p620
(dp621
g3
g531
sg5
F139.8
sg6
g7
sg8
(dp622
g10
F2.06
sg11
F1.33
sg12
I6
ssg13
g67
sbsI196
(iasset
Asset
p623
(dp624
g3
g30
sg5
F175.99
sg6
g7
sg8
(dp625
g10
F2.88
sg11
F1.22
sg12
F2.88
ssg13
g32
sbsI197
(iasset
Asset
p626
(dp627
g3
g366
sg5
I240
sg6
g7
sg8
(dp628
g10
I5
sg11
I3
sg12
F2.45
ssg13
g368
sbsI198
(iasset
Asset
p629
(dp630
g3
g413
sg5
I299
sg6
g7
sg8
(dp631
g10
F1.7
sg11
F2.04
sg12
F2.7
ssg13
g368
sbsI199
(iasset
Asset
p632
(dp633
g3
g49
sg5
F164.99
sg6
g7
sg8
(dp634
g10
F3.93
sg11
F1.12
sg12
F2.5
ssg13
g19
sbsI200
(iasset
Asset
p635
(dp636
g3
g25
sg5
I1299
sg6
g7
sg8
(dp637
g10
F6.2
sg11
F2.11
sg12
F2.7
ssg13
g27
sbsI201
(iasset
Asset
p638
(dp639
g3
g93
sg5
F79.99
sg6
g7
sg8
(dp640
g10
F4.05
sg11
F1.15
sg12
F1.25
ssg13
g95
sbsI202
(iasset
Asset
p641
(dp642
g3
V4 Seater Dining Table Sets
p643
sg5
F515.22
sg6
g7
sg8
(dp644
g10
I5
sg11
F2.95
sg12
F2.44
ssg13
g368
sbsI203
(iasset
Asset
p645
(dp646
g3
g76
sg5
F143.99
sg6
g7
sg8
(dp647
g10
F2.33
sg11
F2.33
sg12
F2.54
ssg13
g78
sbsI204
(iasset
Asset
p648
(dp649
g3
g25
sg5
I1874
sg6
g7
sg8
(dp650
g10
F7.2
sg11
F2.11
sg12
F2.7
ssg13
g27
sbsI205
(iasset
Asset
p651
(dp652
g3
g413
sg5
I299
sg6
g7
sg8
(dp653
g10
F1.7
sg11
F2.04
sg12
F2.7
ssg13
g368
sbsI206
(iasset
Asset
p654
(dp655
g3
g413
sg5
I299
sg6
g7
sg8
(dp656
g10
F1.7
sg11
F2.04
sg12
F2.7
ssg13
g368
sbsI207
(iasset
Asset
p657
(dp658
g3
g413
sg5
I299
sg6
g7
sg8
(dp659
g10
F1.7
sg11
F2.04
sg12
F2.7
ssg13
g368
sbsI208
(iasset
Asset
p660
(dp661
g3
g25
sg5
I799
sg6
g7
sg8
(dp662
g10
I6
sg11
F2.6
sg12
F2.7
ssg13
g27
sbsI209
(iasset
Asset
p663
(dp664
g3
g35
sg5
I399
sg6
g7
sg8
(dp665
g10
F3.8
sg11
F1.7
sg12
F1.6
ssg13
g19
sbsI210
(iasset
Asset
p666
(dp667
g3
VLoveseats
p668
sg5
F729.99
sg6
g7
sg8
(dp669
g10
F6.5
sg11
F2.75
sg12
F2.7
ssg13
g27
sbsI211
(iasset
Asset
p670
(dp671
g3
g35
sg5
I399
sg6
g7
sg8
(dp672
g10
I3
sg11
I3
sg12
F1.6
ssg13
g19
sbsI212
(iasset
Asset
p673
(dp674
g3
g25
sg5
I1874
sg6
g7
sg8
(dp675
g10
F6.2
sg11
F1.11
sg12
F2.8
ssg13
g27
sbsI213
(iasset
Asset
p676
(dp677
g3
g25
sg5
I1699
sg6
g7
sg8
(dp678
g10
I7
sg11
F2.83
sg12
F2.5
ssg13
g27
sbsI214
(iasset
Asset
p679
(dp680
g3
VSingle Beds
p681
sg5
I169
sg6
g7
sg8
(dp682
g10
F3.1
sg11
F2.4
sg12
F0.66
ssg13
g14
sbsI215
(iasset
Asset
p683
(dp684
g3
g366
sg5
I1799
sg6
g7
sg8
(dp685
g10
F6.4
sg11
F2.5
sg12
F2.5
ssg13
g368
sbsI216
(iasset
Asset
p686
(dp687
g3
VSectional Sofas
p688
sg5
I2677
sg6
g7
sg8
(dp689
g10
F8.04
sg11
F8.04
sg12
F2.66
ssg13
g27
sbsI217
(iasset
Asset
p690
(dp691
g3
VWing Chairs
p692
sg5
I998
sg6
g7
sg8
(dp693
g10
F2.32
sg11
F2.9
sg12
F3.24
ssg13
g78
sbsI218
(iasset
Asset
p694
(dp695
g3
g413
sg5
I299
sg6
g7
sg8
(dp696
g10
F1.7
sg11
F2.04
sg12
F2.7
ssg13
g368
sbsI219
(iasset
Asset
p697
(dp698
g3
g413
sg5
I299
sg6
g7
sg8
(dp699
g10
F1.7
sg11
F2.04
sg12
F2.7
ssg13
g368
sbsI220
(iasset
Asset
p700
(dp701
g3
g49
sg5
F169.99
sg6
g7
sg8
(dp702
g10
F3.47
sg11
F1.18
sg12
F2.66
ssg13
g19
sbsI221
(iasset
Asset
p703
(dp704
g3
VBar Chairs
p705
sg5
F186.44
sg6
g7
sg8
(dp706
g10
F1.57
sg11
F1.41
sg12
F2.95
ssg13
g78
sbsI222
(iasset
Asset
p707
(dp708
g3
VLounge Chairs
p709
sg5
I699
sg6
g7
sg8
(dp710
g10
F2.1
sg11
F2.63
sg12
F2.69
ssg13
g78
sbsI223
(iasset
Asset
p711
(dp712
g3
VBenches
p713
sg5
I499
sg6
g7
sg8
(dp714
g10
F3.87
sg11
F1.35
sg12
F1.95
ssg13
g78
sbsI224
(iasset
Asset
p715
(dp716
g3
g366
sg5
I1399
sg6
g7
sg8
(dp717
g10
F3.9
sg11
F3.9
sg12
F2.45
ssg13
g368
sbsI225
(iasset
Asset
p718
(dp719
g3
g643
sg5
I699
sg6
g7
sg8
(dp720
g10
F4.5
sg11
F2.6
sg12
F2.5
ssg13
g368
sbsI226
(iasset
Asset
p721
(dp722
g3
g643
sg5
I0
sg6
g7
sg8
(dp723
g10
F1.7
sg11
F2.04
sg12
F2.7
ssg13
g368
sbsI227
(iasset
Asset
p724
(dp725
g3
g531
sg5
F182.99
sg6
g7
sg8
(dp726
g10
F1.5
sg11
I1
sg12
F6.08
ssg13
g67
sbsI228
(iasset
Asset
p727
(dp728
g3
g643
sg5
F539.99
sg6
g7
sg8
(dp729
g10
F2.95
sg11
F2.95
sg12
F2.5
ssg13
g368
sbsI229
(iasset
Asset
p730
(dp731
g3
g643
sg5
I799
sg6
g7
sg8
(dp732
g10
F3.66
sg11
F3.66
sg12
F2.5
ssg13
g368
sbsI230
(iasset
Asset
p733
(dp734
g3
g93
sg5
F745.22
sg6
g7
sg8
(dp735
g10
I6
sg11
F1.5
sg12
F3.25
ssg13
g95
sbsI231
(iasset
Asset
p736
(dp737
g3
g93
sg5
F641.92
sg6
g7
sg8
(dp738
g10
I5
sg11
F1.33
sg12
I3
ssg13
g95
sbsI232
(iasset
Asset
p739
(dp740
g3
g705
sg5
F459.99
sg6
g7
sg8
(dp741
g10
F1.95
sg11
F1.83
sg12
F2.95
ssg13
g78
sbsI233
(iasset
Asset
p742
(dp743
g3
g705
sg5
F589.99
sg6
g7
sg8
(dp744
g10
F1.62
sg11
F1.75
sg12
F3.45
ssg13
g78
sbsI234
(iasset
Asset
p745
(dp746
g3
g35
sg5
F249.99
sg6
g7
sg8
(dp747
g10
F3.91
sg11
F1.95
sg12
F1.54
ssg13
g19
sbsI235
(iasset
Asset
p748
(dp749
g3
g35
sg5
I929
sg6
g7
sg8
(dp750
g10
F3.16
sg11
F3.16
sg12
F1.41
ssg13
g19
sbsI236
(iasset
Asset
p751
(dp752
g3
g35
sg5
I419
sg6
g7
sg8
(dp753
g10
F2.83
sg11
F3.04
sg12
F1.37
ssg13
g19
sbsI237
(iasset
Asset
p754
(dp755
g3
g35
sg5
I599
sg6
g7
sg8
(dp756
g10
I3
sg11
I3
sg12
F1.33
ssg13
g19
sbsI238
(iasset
Asset
p757
(dp758
g3
VWall Shelves
p759
sg5
F63.99
sg6
g7
sg8
(dp760
g10
F1.75
sg11
F0.33
sg12
F2.08
ssg13
g67
sbsI239
(iasset
Asset
p761
(dp762
g3
g759
sg5
F63.99
sg6
g7
sg8
(dp763
g10
F1.75
sg11
F0.33
sg12
F2.08
ssg13
g67
sbsI240
(iasset
Asset
p764
(dp765
g3
g759
sg5
F37.99
sg6
g7
sg8
(dp766
g10
F0.83
sg11
F0.33
sg12
F1.91
ssg13
g67
sbsI241
(iasset
Asset
p767
(dp768
g3
g643
sg5
F1286.33
sg6
g7
sg8
(dp769
g10
I4
sg11
I4
sg12
F2.45
ssg13
g368
sbsI242
(iasset
Asset
p770
(dp771
g3
g643
sg5
F1071.76
sg6
g7
sg8
(dp772
g10
F4.58
sg11
F2.95
sg12
F2.5
ssg13
g368
sbsI243
(iasset
Asset
p773
(dp774
g3
g35
sg5
F427.75
sg6
g7
sg8
(dp775
g10
F2.62
sg11
F2.62
sg12
F1.27
ssg13
g19
sbsI244
(iasset
Asset
p776
(dp777
g3
VPoufs
p778
sg5
F120.29
sg6
g7
sg8
(dp779
g10
F2.45
sg11
F2.45
sg12
F1.5
ssg13
g78
sbsI245
(iasset
Asset
p780
(dp781
g3
g76
sg5
F141.6
sg6
g7
sg8
(dp782
g10
F1.58
sg11
F1.95
sg12
F3.16
ssg13
g78
sbsI246
(iasset
Asset
p783
(dp784
g3
g93
sg5
F165.99
sg6
g7
sg8
(dp785
g10
F5.25
sg11
I1
sg12
F3.41
ssg13
g95
sbsI247
(iasset
Asset
p786
(dp787
g3
g93
sg5
F130.22
sg6
g7
sg8
(dp788
g10
F4.83
sg11
F1.33
sg12
F2.08
ssg13
g95
sbsI248
(iasset
Asset
p789
(dp790
g3
g25
sg5
F600.99
sg6
g7
sg8
(dp791
g10
F7.33
sg11
F3.08
sg12
F3.08
ssg13
g27
sbsI249
(iasset
Asset
p792
(dp793
g3
g713
sg5
I326
sg6
g7
sg8
(dp794
g10
I5
sg11
F1.16
sg12
F1.5
ssg13
g78
sbsI250
(iasset
Asset
p795
(dp796
g3
g76
sg5
F92.99
sg6
g7
sg8
(dp797
g10
F2.14
sg11
I2
sg12
F2.8
ssg13
g78
sbsI251
(iasset
Asset
p798
(dp799
g3
g76
sg5
F110.02
sg6
g7
sg8
(dp800
g10
F2.04
sg11
F2.1667
sg12
F2.83
ssg13
g78
sbsI252
(iasset
Asset
p801
(dp802
g3
g35
sg5
I450
sg6
g7
sg8
(dp803
g10
F3.91
sg11
F2.58
sg12
F1.37
ssg13
g19
sbsI253
(iasset
Asset
p804
(dp805
g3
g76
sg5
F233.99
sg6
g7
sg8
(dp806
g10
F2.27
sg11
F2.44
sg12
F2.69
ssg13
g78
sbsI254
(iasset
Asset
p807
(dp808
g3
g759
sg5
I87
sg6
g7
sg8
(dp809
g10
F2.99
sg11
I1
sg12
F2.46
ssg13
g67
sbsI255
(iasset
Asset
p810
(dp811
g3
g759
sg5
I46
sg6
g7
sg8
(dp812
g10
I2
sg11
F0.45
sg12
F0.16
ssg13
g67
sbsI256
(iasset
Asset
p813
(dp814
g3
g35
sg5
I188
sg6
g7
sg8
(dp815
g10
F2.95
sg11
F2.95
sg12
F1.05
ssg13
g19
sbsI257
(iasset
Asset
p816
(dp817
g3
g35
sg5
I516
sg6
g7
sg8
(dp818
g10
F5.33
sg11
I3
sg12
F1.66
ssg13
g19
sbsI258
(iasset
Asset
p819
(dp820
g3
g35
sg5
F153.99
sg6
g7
sg8
(dp821
g10
F1.5
sg11
F1.5
sg12
F1.18
ssg13
g19
sbsI259
(iasset
Asset
p822
(dp823
g3
g93
sg5
I272
sg6
g7
sg8
(dp824
g10
F4.44
sg11
F1.5
sg12
F2.49
ssg13
g95
sbsI260
(iasset
Asset
p825
(dp826
g3
g93
sg5
I1379
sg6
g7
sg8
(dp827
g10
F5.5
sg11
F1.44
sg12
F3.2
ssg13
g95
sbsI261
(iasset
Asset
p828
(dp829
g3
g778
sg5
F79.95
sg6
g7
sg8
(dp830
g10
F1.667
sg11
F1.667
sg12
F1.167
ssg13
g78
sbsI262
(iasset
Asset
p831
(dp832
g3
g709
sg5
I0
sg6
g7
sg8
(dp833
g10
F2.46
sg11
F2.46
sg12
F2.62
ssg13
g78
sbsI263
(iasset
Asset
p834
(dp835
g3
g76
sg5
F149.99
sg6
g7
sg8
(dp836
g10
F1.75
sg11
F2.25
sg12
F3.41
ssg13
g78
sbsI264
(iasset
Asset
p837
(dp838
g3
g76
sg5
F299.99
sg6
g7
sg8
(dp839
g10
F1.75
sg11
F2.25
sg12
F3.41
ssg13
g78
sbsI265
(iasset
Asset
p840
(dp841
g3
g76
sg5
F193.99
sg6
g7
sg8
(dp842
g10
F1.91
sg11
F2.33
sg12
F2.91
ssg13
g78
sbsI266
(iasset
Asset
p843
(dp844
g3
g76
sg5
F193.99
sg6
g7
sg8
(dp845
g10
F2.91
sg11
F2.33
sg12
F2.83
ssg13
g78
sbsI267
(iasset
Asset
p846
(dp847
g3
g76
sg5
F193.99
sg6
g7
sg8
(dp848
g10
F1.91
sg11
F2.33
sg12
F2.83
ssg13
g78
sbsI268
(iasset
Asset
p849
(dp850
g3
g76
sg5
F138.99
sg6
g7
sg8
(dp851
g10
F2.08
sg11
F2.31
sg12
F2.75
ssg13
g78
sbsI269
(iasset
Asset
p852
(dp853
g3
g76
sg5
F157.99
sg6
g7
sg8
(dp854
g10
F2.08
sg11
F2.31
sg12
F2.77
ssg13
g78
sbsI270
(iasset
Asset
p855
(dp856
g3
g76
sg5
F141.99
sg6
g7
sg8
(dp857
g10
F2.08
sg11
F2.31
sg12
F2.77
ssg13
g78
sbsI271
(iasset
Asset
p858
(dp859
g3
g76
sg5
F187.99
sg6
g7
sg8
(dp860
g10
F1.8
sg11
F2.49
sg12
F2.71
ssg13
g78
sbsI272
(iasset
Asset
p861
(dp862
g3
g30
sg5
I303
sg6
g7
sg8
(dp863
g10
I2
sg11
F1.5
sg12
F4.41
ssg13
g32
sbsI273
(iasset
Asset
p864
(dp865
g3
g30
sg5
I450
sg6
g7
sg8
(dp866
g10
F3.5
sg11
F1.5
sg12
F3.16
ssg13
g32
sbsI274
(iasset
Asset
p867
(dp868
g3
g17
sg5
F132.99
sg6
g7
sg8
(dp869
g10
F1.6
sg11
F1.08
sg12
F2.23
ssg13
g19
sbsI275
(iasset
Asset
p870
(dp871
g3
g17
sg5
F132.99
sg6
g7
sg8
(dp872
g10
F1.6
sg11
F1.08
sg12
F2.23
ssg13
g19
sbsI276
(iasset
Asset
p873
(dp874
g3
g17
sg5
F132.99
sg6
g7
sg8
(dp875
g10
F1.6
sg11
F1.08
sg12
F2.23
ssg13
g19
sbsI277
(iasset
Asset
p876
(dp877
g3
g30
sg5
I450
sg6
g7
sg8
(dp878
g10
F3.5
sg11
F1.5
sg12
F3.16
ssg13
g32
sbsI278
(iasset
Asset
p879
(dp880
g3
g17
sg5
F132.99
sg6
g7
sg8
(dp881
g10
F1.6
sg11
F1.08
sg12
F2.23
ssg13
g19
sbsI279
(iasset
Asset
p882
(dp883
g3
g30
sg5
I640
sg6
g7
sg8
(dp884
g10
I4
sg11
F1.43
sg12
F3.33
ssg13
g32
sbsI280
(iasset
Asset
p885
(dp886
g3
g17
sg5
F132.99
sg6
g7
sg8
(dp887
g10
F1.5
sg11
F1.08
sg12
F2.23
ssg13
g19
sbsI281
(iasset
Asset
p888
(dp889
g3
g17
sg5
F369.99
sg6
g7
sg8
(dp890
g10
F2.61
sg11
F1.667
sg12
F2.5
ssg13
g19
sbsI282
(iasset
Asset
p891
(dp892
g3
g30
sg5
I640
sg6
g7
sg8
(dp893
g10
I4
sg11
F1.18
sg12
F3.33
ssg13
g32
sbsI283
(iasset
Asset
p894
(dp895
g3
g17
sg5
F369.99
sg6
g7
sg8
(dp896
g10
F2.61
sg11
F1.667
sg12
F2.5
ssg13
g19
sbsI284
(iasset
Asset
p897
(dp898
g3
g17
sg5
F409.99
sg6
g7
sg8
(dp899
g10
F2.41
sg11
F1.41
sg12
F2.46
ssg13
g19
sbsI285
(iasset
Asset
p900
(dp901
g3
g30
sg5
I670
sg6
g7
sg8
(dp902
g10
F2.91
sg11
F1.66
sg12
F4.02
ssg13
g32
sbsI286
(iasset
Asset
p903
(dp904
g3
g17
sg5
F345.99
sg6
g7
sg8
(dp905
g10
F2.41
sg11
F1.41
sg12
F2.46
ssg13
g19
sbsI287
(iasset
Asset
p906
(dp907
g3
g30
sg5
I538
sg6
g7
sg8
(dp908
g10
F4.25
sg11
F1.66
sg12
I3
ssg13
g32
sbsI288
(iasset
Asset
p909
(dp910
g3
g17
sg5
F309.99
sg6
g7
sg8
(dp911
g10
F2.41
sg11
F1.33
sg12
F3.54
ssg13
g19
sbsI289
(iasset
Asset
p912
(dp913
g3
g30
sg5
I629
sg6
g7
sg8
(dp914
g10
F5.5
sg11
F1.5
sg12
F3.41
ssg13
g32
sbsI290
(iasset
Asset
p915
(dp916
g3
g17
sg5
F337.99
sg6
g7
sg8
(dp917
g10
F2.41
sg11
F1.375
sg12
F2.54
ssg13
g19
sbsI291
(iasset
Asset
p918
(dp919
g3
g17
sg5
F160.99
sg6
g7
sg8
(dp920
g10
I2
sg11
F1.33
sg12
I2
ssg13
g19
sbsI292
(iasset
Asset
p921
(dp922
g3
g30
sg5
I739
sg6
g7
sg8
(dp923
g10
F5.1
sg11
F1.54
sg12
F3.35
ssg13
g32
sbsI293
(iasset
Asset
p924
(dp925
g3
g17
sg5
F299.99
sg6
g7
sg8
(dp926
g10
F2.58
sg11
F1.33
sg12
F2.5
ssg13
g19
sbsI294
(iasset
Asset
p927
(dp928
g3
g17
sg5
F302.99
sg6
g7
sg8
(dp929
g10
F2.58
sg11
F1.33
sg12
F2.5
ssg13
g19
sbsI295
(iasset
Asset
p930
(dp931
g3
g30
sg5
I650
sg6
g7
sg8
(dp932
g10
F4.5
sg11
F1.5
sg12
F3.33
ssg13
g32
sbsI296
(iasset
Asset
p933
(dp934
g3
g17
sg5
F369.99
sg6
g7
sg8
(dp935
g10
F2.5
sg11
F1.41
sg12
F2.5
ssg13
g19
sbsI297
(iasset
Asset
p936
(dp937
g3
g17
sg5
F187.99
sg6
g7
sg8
(dp938
g10
F2.21
sg11
F1.62
sg12
F2.14
ssg13
g19
sbsI298
(iasset
Asset
p939
(dp940
g3
g17
sg5
F166.99
sg6
g7
sg8
(dp941
g10
F2.21
sg11
F1.62
sg12
F2.14
ssg13
g19
sbsI299
(iasset
Asset
p942
(dp943
g3
g39
sg5
F166.99
sg6
g7
sg8
(dp944
g10
F2.21
sg11
F1.62
sg12
F2.14
ssg13
g19
sbsI300
(iasset
Asset
p945
(dp946
g3
g30
sg5
I730
sg6
g7
sg8
(dp947
g10
F4.83
sg11
F0.08
sg12
F2.83
ssg13
g32
sbsI301
(iasset
Asset
p948
(dp949
g3
g17
sg5
F166.99
sg6
g7
sg8
(dp950
g10
F2.21
sg11
F1.62
sg12
F2.14
ssg13
g19
sbsI302
(iasset
Asset
p951
(dp952
g3
g17
sg5
F118.99
sg6
g7
sg8
(dp953
g10
F1.33
sg11
F1.33
sg12
F2.41
ssg13
g19
sbsI303
(iasset
Asset
p954
(dp955
g3
g30
sg5
I849
sg6
g7
sg8
(dp956
g10
F3.5
sg11
F1.58
sg12
F4.5
ssg13
g32
sbsI304
(iasset
Asset
p957
(dp958
g3
g17
sg5
F346.99
sg6
g7
sg8
(dp959
g10
F2.08
sg11
F1.5
sg12
F2.25
ssg13
g19
sbsI305
(iasset
Asset
p960
(dp961
g3
g17
sg5
F319.99
sg6
g7
sg8
(dp962
g10
F2.08
sg11
F1.5
sg12
F2.25
ssg13
g19
sbsI306
(iasset
Asset
p963
(dp964
g3
g30
sg5
I400
sg6
g7
sg8
(dp965
g10
F2.54
sg11
F1.45
sg12
F3.29
ssg13
g32
sbsI307
(iasset
Asset
p966
(dp967
g3
g17
sg5
F434.99
sg6
g7
sg8
(dp968
g10
F1.833
sg11
F1.58
sg12
F2.5
ssg13
g19
sbsI308
(iasset
Asset
p969
(dp970
g3
g705
sg5
I189
sg6
g7
sg8
(dp971
g10
F1.81
sg11
F1.56
sg12
F3.7
ssg13
g78
sbsI309
(iasset
Asset
p972
(dp973
g3
VBar Stools
p974
sg5
I224
sg6
g7
sg8
(dp975
g10
F1.91
sg11
F1.91
sg12
F3.29
ssg13
g78
sbsI310
(iasset
Asset
p976
(dp977
g3
g974
sg5
I126
sg6
g7
sg8
(dp978
g10
F1.47
sg11
F1.76
sg12
F3.18
ssg13
g78
sbsI311
(iasset
Asset
p979
(dp980
g3
g35
sg5
F297.99
sg6
g7
sg8
(dp981
g10
I3
sg11
I3
sg12
F1.667
ssg13
g19
sbsI312
(iasset
Asset
p982
(dp983
g3
g974
sg5
I124
sg6
g7
sg8
(dp984
g10
F1.33
sg11
F1.33
sg12
I2
ssg13
g78
sbsI313
(iasset
Asset
p985
(dp986
g3
g974
sg5
I193
sg6
g7
sg8
(dp987
g10
F1.33
sg11
F1.33
sg12
I2
ssg13
g78
sbsI314
(iasset
Asset
p988
(dp989
g3
g35
sg5
F186.99
sg6
g7
sg8
(dp990
g10
I4
sg11
I2
sg12
F1.5
ssg13
g19
sbsI315
(iasset
Asset
p991
(dp992
g3
g974
sg5
I224
sg6
g7
sg8
(dp993
g10
F1.66
sg11
F1.52
sg12
F2.58
ssg13
g78
sbsI316
(iasset
Asset
p994
(dp995
g3
g974
sg5
I155
sg6
g7
sg8
(dp996
g10
F1.5
sg11
F1.58
sg12
F3.58
ssg13
g78
sbsI317
(iasset
Asset
p997
(dp998
g3
g35
sg5
F214.99
sg6
g7
sg8
(dp999
g10
F2.625
sg11
F2.625
sg12
F1.12
ssg13
g19
sbsI318
(iasset
Asset
p1000
(dp1001
g3
g974
sg5
I133
sg6
g7
sg8
(dp1002
g10
F1.5
sg11
F1.58
sg12
F3.16
ssg13
g78
sbsI319
(iasset
Asset
p1003
(dp1004
g3
g974
sg5
I135
sg6
g7
sg8
(dp1005
g10
F1.5
sg11
F1.32
sg12
F3.19
ssg13
g78
sbsI320
(iasset
Asset
p1006
(dp1007
g3
g974
sg5
I130
sg6
g7
sg8
(dp1008
g10
F1.58
sg11
F1.7
sg12
F2.87
ssg13
g78
sbsI321
(iasset
Asset
p1009
(dp1010
g3
g25
sg5
I960
sg6
g7
sg8
(dp1011
g10
F7.54
sg11
F3.03
sg12
F2.44
ssg13
g27
sbsI322
(iasset
Asset
p1012
(dp1013
g3
g668
sg5
I1350
sg6
g7
sg8
(dp1014
g10
F4.75
sg11
F3.5
sg12
I3
ssg13
g27
sbsI323
(iasset
Asset
p1015
(dp1016
g3
g668
sg5
I1347
sg6
g7
sg8
(dp1017
g10
F4.75
sg11
F3.5
sg12
I3
ssg13
g27
sbsI324
(iasset
Asset
p1018
(dp1019
g3
g35
sg5
F474.99
sg6
g7
sg8
(dp1020
g10
I3
sg11
I3
sg12
F1.6
ssg13
g19
sbsI325
(iasset
Asset
p1021
(dp1022
g3
g35
sg5
F315.99
sg6
g7
sg8
(dp1023
g10
F2.25
sg11
F2.25
sg12
F1.6
ssg13
g19
sbsI326
(iasset
Asset
p1024
(dp1025
g3
g668
sg5
I410
sg6
g7
sg8
(dp1026
g10
F2.08
sg11
F2.33
sg12
F3.33
ssg13
g27
sbsI327
(iasset
Asset
p1027
(dp1028
g3
g35
sg5
F183.99
sg6
g7
sg8
(dp1029
g10
F2.39
sg11
F1.625
sg12
F1.64
ssg13
g19
sbsI328
(iasset
Asset
p1030
(dp1031
g3
g25
sg5
I1480
sg6
g7
sg8
(dp1032
g10
F7.33
sg11
F3.33
sg12
F3.08
ssg13
g27
sbsI329
(iasset
Asset
p1033
(dp1034
g3
g25
sg5
I1480
sg6
g7
sg8
(dp1035
g10
F7.33
sg11
F3.33
sg12
F3.08
ssg13
g27
sbsI330
(iasset
Asset
p1036
(dp1037
g3
g25
sg5
I720
sg6
g7
sg8
(dp1038
g10
F6.22
sg11
F2.83
sg12
F2.87
ssg13
g27
sbsI331
(iasset
Asset
p1039
(dp1040
g3
g35
sg5
F559.99
sg6
g7
sg8
(dp1041
g10
I4
sg11
I2
sg12
F1.41
ssg13
g19
sbsI332
(iasset
Asset
p1042
(dp1043
g3
g132
sg5
I372
sg6
g7
sg8
(dp1044
g10
F6.23
sg11
F2.85
sg12
F2.65
ssg13
g27
sbsI333
(iasset
Asset
p1045
(dp1046
g3
V4 Door Wardrobes
p1047
sg5
I0
sg6
g7
sg8
(dp1048
g10
I6
sg11
I2
sg12
I10
ssg13
VWardrobes
p1049
sbsI334
(iasset
Asset
p1050
(dp1051
g3
g25
sg5
I740
sg6
g7
sg8
(dp1052
g10
F6.62
sg11
F2.79
sg12
F2.62
ssg13
g27
sbsI335
(iasset
Asset
p1053
(dp1054
g3
g25
sg5
I1450
sg6
g7
sg8
(dp1055
g10
F7.33
sg11
F3.08
sg12
F2.83
ssg13
g27
sbsI336
(iasset
Asset
p1056
(dp1057
g3
g25
sg5
I1450
sg6
g7
sg8
(dp1058
g10
F7.33
sg11
F3.08
sg12
F2.83
ssg13
g27
sbsI337
(iasset
Asset
p1059
(dp1060
g3
S''
p1061
sg5
I529
sg6
g7
sg8
(dp1062
g10
F7.34
sg11
F3.11
sg12
F2.88
ssg13
g1061
sbsI338
(iasset
Asset
p1063
(dp1064
g3
g30
sg5
I3695
sg6
g7
sg8
(dp1065
g10
F5.75
sg11
F1.667
sg12
F2.91
ssg13
g32
sbsI339
(iasset
Asset
p1066
(dp1067
g3
g4
sg5
I2996
sg6
g7
sg8
(dp1068
g10
F5.58
sg11
F7.16
sg12
I4
ssg13
g14
sbsI340
(iasset
Asset
p1069
(dp1070
g3
g17
sg5
I1945
sg6
g7
sg8
(dp1071
g10
F2.4
sg11
F1.67
sg12
F1.91
ssg13
g19
sbsI341
(iasset
Asset
p1072
(dp1073
g3
g4
sg5
I4950
sg6
g7
sg8
(dp1074
g10
I6
sg11
F8.08
sg12
F4.75
ssg13
g14
sbsI342
(iasset
Asset
p1075
(dp1076
g3
g76
sg5
I19
sg6
g7
sg8
(dp1077
g10
F2.33
sg11
F2.5
sg12
F2.87
ssg13
g78
sbsI343
(iasset
Asset
p1078
(dp1079
g3
g30
sg5
I42
sg6
g7
sg8
(dp1080
g10
F2.66
sg11
F1.33
sg12
F4.58
ssg13
g32
sbsI344
(iasset
Asset
p1081
(dp1082
g3
g17
sg5
I18
sg6
g7
sg8
(dp1083
g10
F1.83
sg11
F1.33
sg12
F2.16
ssg13
g19
sbsI345
(iasset
Asset
p1084
(dp1085
g3
g25
sg5
I64
sg6
g7
sg8
(dp1086
g10
F5.8
sg11
F2.72
sg12
F2.69
ssg13
g27
sbsI346
(iasset
Asset
p1087
(dp1088
g3
g49
sg5
I35
sg6
g7
sg8
(dp1089
g10
I4
sg11
F1.25
sg12
F2.49
ssg13
g19
sbsI347
(iasset
Asset
p1090
(dp1091
g3
g413
sg5
I12
sg6
g7
sg8
(dp1092
g10
F1.7
sg11
I2
sg12
F3.33
ssg13
g368
sbsI348
(iasset
Asset
p1093
(dp1094
g3
g366
sg5
I59
sg6
g7
sg8
(dp1095
g10
F4.52
sg11
F4.52
sg12
F2.55
ssg13
g368
sbsI349
(iasset
Asset
p1096
(dp1097
g3
g4
sg5
I32
sg6
g7
sg8
(dp1098
g10
F5.31
sg11
F7.16
sg12
F3.93
ssg13
g14
sbsI350
(iasset
Asset
p1099
(dp1100
g3
g35
sg5
I46
sg6
g7
sg8
(dp1101
g10
F3.91
sg11
F2.15
sg12
F1.25
ssg13
g19
sbsI351
(iasset
Asset
p1102
(dp1103
g3
VNested Tables
p1104
sg5
I26
sg6
g7
sg8
(dp1105
g10
F1.64
sg11
F1.64
sg12
F1.49
ssg13
g19
sbsI352
(iasset
Asset
p1106
(dp1107
g3
VStudy Tables
p1108
sg5
I850
sg6
g7
sg8
(dp1109
g10
F4.58
sg11
F1.91
sg12
F2.5
ssg13
g19
sbsI353
(iasset
Asset
p1110
(dp1111
g3
VOffice Chairs
p1112
sg5
I1195
sg6
g7
sg8
(dp1113
g10
F2.25
sg11
F2.08
sg12
F2.75
ssg13
g78
sbsI354
(iasset
Asset
p1114
(dp1115
g3
g1112
sg5
I695
sg6
g7
sg8
(dp1116
g10
F1.667
sg11
F2.08
sg12
F3.41
ssg13
g78
sbsI355
(iasset
Asset
p1117
(dp1118
g3
VBean Bags
p1119
sg5
I279
sg6
g7
sg8
(dp1120
g10
F4.58
sg11
F4.58
sg12
I2
ssg13
g78
sbsI356
(iasset
Asset
p1121
(dp1122
g3
g1119
sg5
I279
sg6
g7
sg8
(dp1123
g10
F4.58
sg11
F4.58
sg12
I2
ssg13
g78
sbsI357
(iasset
Asset
p1124
(dp1125
g3
g1119
sg5
I279
sg6
g7
sg8
(dp1126
g10
F4.58
sg11
F4.58
sg12
I2
ssg13
g78
sbsI358
(iasset
Asset
p1127
(dp1128
g3
g35
sg5
I1895
sg6
g7
sg8
(dp1129
g10
F4.5
sg11
F4.5
sg12
F1.33
ssg13
g19
sbsI359
(iasset
Asset
p1130
(dp1131
g3
g35
sg5
I1895
sg6
g7
sg8
(dp1132
g10
F4.5
sg11
F4.5
sg12
F1.33
ssg13
g19
sbsI360
(iasset
Asset
p1133
(dp1134
g3
g4
sg5
I4695
sg6
g7
sg8
(dp1135
g10
F6.5
sg11
F7.5
sg12
F3.167
ssg13
g14
sbsI361
(iasset
Asset
p1136
(dp1137
g3
g35
sg5
I2350
sg6
g7
sg8
(dp1138
g10
F4.58
sg11
F2.66
sg12
F1.25
ssg13
g19
sbsI362
(iasset
Asset
p1139
(dp1140
g3
g4
sg5
I5195
sg6
g7
sg8
(dp1141
g10
F7.33
sg11
F8.08
sg12
F3.58
ssg13
g14
sbsI363
(iasset
Asset
p1142
(dp1143
g3
g25
sg5
I7895
sg6
g7
sg8
(dp1144
g10
I6
sg11
F3.16
sg12
F2.66
ssg13
g27
sbsI364
(iasset
Asset
p1145
(dp1146
g3
g76
sg5
I395
sg6
g7
sg8
(dp1147
g10
F2.08
sg11
F2.41
sg12
F2.5
ssg13
g78
sbsI365
(iasset
Asset
p1148
(dp1149
g3
VPartitions
p1150
sg5
I0
sg6
g7
sg8
(dp1151
g10
I6
sg11
F0.5
sg12
I7
ssg13
VPartitions
p1152
sbsI366
(iasset
Asset
p1153
(dp1154
g3
g366
sg5
I4095
sg6
g7
sg8
(dp1155
g10
I7
sg11
F3.33
sg12
F2.5
ssg13
g368
sbsI367
(iasset
Asset
p1156
(dp1157
g3
g366
sg5
I3495
sg6
g7
sg8
(dp1158
g10
I7
sg11
F2.5
sg12
I3
ssg13
g368
sbsI368
(iasset
Asset
p1159
(dp1160
g3
g65
sg5
I3095
sg6
g7
sg8
(dp1161
g10
F3.667
sg11
I2
sg12
F6.41
ssg13
g67
sbsI369
(iasset
Asset
p1162
(dp1163
g3
g65
sg5
I2195
sg6
g7
sg8
(dp1164
g10
F3.167
sg11
F1.5
sg12
F6.4
ssg13
g67
sbsI370
(iasset
Asset
p1165
(dp1166
g3
g76
sg5
I1695
sg6
g7
sg8
(dp1167
g10
F2.9
sg11
F2.9
sg12
F2.5
ssg13
g78
sbsI371
(iasset
Asset
p1168
(dp1169
g3
g974
sg5
I297
sg6
g7
sg8
(dp1170
g10
F1.25
sg11
F1.25
sg12
F2.41
ssg13
g78
sbsI372
(iasset
Asset
p1171
(dp1172
g3
VBar tables
p1173
sg5
I995
sg6
g7
sg8
(dp1174
g10
F5.33
sg11
I2
sg12
I3
ssg13
g19
sbsI373
(iasset
Asset
p1175
(dp1176
g3
g713
sg5
I1795
sg6
g7
sg8
(dp1177
g10
F7.91
sg11
F1.25
sg12
F1.5
ssg13
g78
sbsI374
(iasset
Asset
p1178
(dp1179
g3
g531
sg5
I795
sg6
g7
sg8
(dp1180
g10
F2.66
sg11
F1.91
sg12
F6.91
ssg13
g67
sbsI375
(iasset
Asset
p1181
(dp1182
g3
g531
sg5
I995
sg6
g7
sg8
(dp1183
g10
F2.29
sg11
F1.58
sg12
F6.45
ssg13
g67
sbsI376
(iasset
Asset
p1184
(dp1185
g3
g76
sg5
I3195
sg6
g7
sg8
(dp1186
g10
F2.75
sg11
F2.66
sg12
F5.08
ssg13
g78
sbsI377
(iasset
Asset
p1187
(dp1188
g3
g76
sg5
I850
sg6
g7
sg8
(dp1189
g10
F2.16
sg11
F2.25
sg12
F2.33
ssg13
g78
sbsI378
(iasset
Asset
p1190
(dp1191
g3
g366
sg5
I3515
sg6
g7
sg8
(dp1192
g10
I10
sg11
F3.33
sg12
F2.5
ssg13
g368
sbsI379
(iasset
Asset
p1193
(dp1194
g3
g366
sg5
I4095
sg6
g7
sg8
(dp1195
g10
I10
sg11
F3.33
sg12
F2.5
ssg13
g368
sbsI380
(iasset
Asset
p1196
(dp1197
g3
g30
sg5
I1040
sg6
g7
sg8
(dp1198
g10
F4.5
sg11
F1.5
sg12
F2.67
ssg13
g32
sbsI381
(iasset
Asset
p1199
(dp1200
g3
g413
sg5
I247
sg6
g7
sg8
(dp1201
g10
F1.66
sg11
I2
sg12
F3.16
ssg13
g368
sbsI382
(iasset
Asset
p1202
(dp1203
g3
g413
sg5
I595
sg6
g7
sg8
(dp1204
g10
F1.75
sg11
F1.78
sg12
F2.75
ssg13
g368
sbsI383
(iasset
Asset
p1205
(dp1206
g3
g25
sg5
I10295
sg6
g7
sg8
(dp1207
g10
I6
sg11
F2.83
sg12
F2.58
ssg13
g27
sbsI384
(iasset
Asset
p1208
(dp1209
g3
g17
sg5
I320
sg6
g7
sg8
(dp1210
g10
F1.5
sg11
F1.5
sg12
I2
ssg13
g19
sbsI385
(iasset
Asset
p1211
(dp1212
g3
g4
sg5
F118.32
sg6
g7
sg8
(dp1213
g10
F4.58
sg11
F6.48
sg12
F4.04
ssg13
g14
sbsI386
(iasset
Asset
p1214
(dp1215
g3
g39
sg5
F79.99
sg6
g7
sg8
(dp1216
g10
F1.65
sg11
F1.32
sg12
F2.25
ssg13
g19
sbsI387
(iasset
Asset
p1217
(dp1218
g3
g759
sg5
F31.99
sg6
g7
sg8
(dp1219
g10
F2.95
sg11
F0.375
sg12
F0.29
ssg13
g67
sbsI388
(iasset
Asset
p1220
(dp1221
g3
g35
sg5
I570
sg6
g7
sg8
(dp1222
g10
F2.66
sg11
F2.66
sg12
F1.16
ssg13
g19
sbsI389
(iasset
Asset
p1223
(dp1224
g3
g413
sg5
I113
sg6
g7
sg8
(dp1225
g10
F1.6
sg11
F1.64
sg12
F3.18
ssg13
g368
sbsI390
(iasset
Asset
p1226
(dp1227
g3
g4
sg5
F519.99
sg6
g7
sg8
(dp1228
g10
F5.75
sg11
F7.4
sg12
I4
ssg13
g14
sbsI391
(iasset
Asset
p1229
(dp1230
g3
g17
sg5
I1250
sg6
g7
sg8
(dp1231
g10
F1.58
sg11
F1.58
sg12
F1.58
ssg13
g19
sbsI392
(iasset
Asset
p1232
(dp1233
g3
g17
sg5
I1250
sg6
g7
sg8
(dp1234
g10
F1.58
sg11
F1.58
sg12
F1.58
ssg13
g19
sbsI393
(iasset
Asset
p1235
(dp1236
g3
g17
sg5
I1250
sg6
g7
sg8
(dp1237
g10
F1.58
sg11
F1.58
sg12
F1.58
ssg13
g19
sbsI394
(iasset
Asset
p1238
(dp1239
g3
g4
sg5
I680
sg6
g7
sg8
(dp1240
g10
F5.52
sg11
F7.12
sg12
F4.41
ssg13
g14
sbsI395
(iasset
Asset
p1241
(dp1242
g3
VCafe Chairs
p1243
sg5
I124
sg6
g7
sg8
(dp1244
g10
F1.5
sg11
F1.75
sg12
F2.83
ssg13
g78
sbsI396
(iasset
Asset
p1245
(dp1246
g3
g1119
sg5
I104
sg6
g7
sg8
(dp1247
g10
I4
sg11
I4
sg12
F2.8
ssg13
g78
sbsI397
(iasset
Asset
p1248
(dp1249
g3
g531
sg5
I440
sg6
g7
sg8
(dp1250
g10
F3.33
sg11
F1.5
sg12
F5.25
ssg13
g67
sbsI398
(iasset
Asset
p1251
(dp1252
g3
g1108
sg5
I378
sg6
g7
sg8
(dp1253
g10
I5
sg11
F2.33
sg12
F2.5
ssg13
g19
sbsI399
(iasset
Asset
p1254
(dp1255
g3
g98
sg5
I0
sg6
g7
sg8
(dp1256
g10
I6
sg11
F2.33
sg12
F3.5
ssg13
g67
sbsI400
(iasset
Asset
p1257
(dp1258
g3
VKing Sized Beds
p1259
sg5
I12499
sg6
g7
sg8
(dp1260
g10
F6.08
sg11
F6.67
sg12
I3
ssg13
g14
sbsI401
(iasset
Asset
p1261
(dp1262
g3
g709
sg5
I1298
sg6
g7
sg8
(dp1263
g10
F2.22
sg11
F2.22
sg12
F2.2
ssg13
g78
sbsI402
(iasset
Asset
p1264
(dp1265
g3
g98
sg5
F829.99
sg6
g7
sg8
(dp1266
g10
I5
sg11
F1.58
sg12
F3.17
ssg13
g67
sbsI403
(iasset
Asset
p1267
(dp1268
g3
g413
sg5
F519.98
sg6
g7
sg8
(dp1269
g10
F2.18
sg11
F1.833
sg12
F3.5
ssg13
g368
sbsI404
(iasset
Asset
p1270
(dp1271
g3
g366
sg5
I4995
sg6
g7
sg8
(dp1272
g10
F3.33
sg11
I7
sg12
F2.5
ssg13
g368
sbsI405
(iasset
Asset
p1273
(dp1274
g3
g25
sg5
F1649.99
sg6
g7
sg8
(dp1275
g10
F7.91
sg11
F3.3
sg12
F2.54
ssg13
g27
sbsI406
(iasset
Asset
p1276
(dp1277
g3
g30
sg5
I1299
sg6
g7
sg8
(dp1278
g10
F4.83
sg11
F1.5
sg12
F2.67
ssg13
g32
sbsI407
(iasset
Asset
p1279
(dp1280
g3
g17
sg5
I320
sg6
g7
sg8
(dp1281
g10
F1.67
sg11
F1.5
sg12
F2.167
ssg13
g19
sbsI408
(iasset
Asset
p1282
(dp1283
g3
g4
sg5
I1200
sg6
g7
sg8
(dp1284
g10
F5.5
sg11
F7.08
sg12
F4.67
ssg13
g14
sbsI409
(iasset
Asset
p1285
(dp1286
g3
g98
sg5
I106
sg6
g7
sg8
(dp1287
g10
F2.5
sg11
F0.66
sg12
F5.5
ssg13
g67
sbsI410
(iasset
Asset
p1288
(dp1289
g3
g1173
sg5
I1590
sg6
g7
sg8
(dp1290
g10
I6
sg11
F2.33
sg12
F3.5
ssg13
g19
sbsI411
(iasset
Asset
p1291
(dp1292
g3
g149
sg5
F211.99
sg6
g7
sg8
(dp1293
g10
F2.91
sg11
F2.91
sg12
F1.54
ssg13
g78
sbsI412
(iasset
Asset
p1294
(dp1295
g3
g149
sg5
F369.99
sg6
g7
sg8
(dp1296
g10
F3.85
sg11
F2.33
sg12
F1.5
ssg13
g78
sbsI413
(iasset
Asset
p1297
(dp1298
g3
g1173
sg5
I367
sg6
g7
sg8
(dp1299
g10
F2.5
sg11
F2.5
sg12
F3.33
ssg13
g19
sbsI414
(iasset
Asset
p1300
(dp1301
g3
g974
sg5
I122
sg6
g7
sg8
(dp1302
g10
F1.41
sg11
F1.5
sg12
F3.91
ssg13
g78
sbsI415
(iasset
Asset
p1303
(dp1304
g3
g142
sg5
I839
sg6
g7
sg8
(dp1305
g10
F3.5
sg11
F3.33
sg12
F2.58
ssg13
g78
sbsI416
(iasset
Asset
p1306
(dp1307
g3
g974
sg5
I166
sg6
g7
sg8
(dp1308
g10
F1.55
sg11
F1.55
sg12
F2.52
ssg13
g78
sbsI417
(iasset
Asset
p1309
(dp1310
g3
g1108
sg5
I670
sg6
g7
sg8
(dp1311
g10
F5.24
sg11
F1.47
sg12
F2.42
ssg13
g19
sbsI418
(iasset
Asset
p1312
(dp1313
g3
g1112
sg5
F112.99
sg6
g7
sg8
(dp1314
g10
F1.73
sg11
F1.73
sg12
F1.9
ssg13
g78
sbsI419
(iasset
Asset
p1315
(dp1316
g3
g1112
sg5
F112.99
sg6
g7
sg8
(dp1317
g10
F1.73
sg11
F1.73
sg12
F1.9
ssg13
g78
sbsI420
(iasset
Asset
p1318
(dp1319
g3
g35
sg5
F165.99
sg6
g7
sg8
(dp1320
g10
F3.67
sg11
F1.83
sg12
F1.67
ssg13
g19
sbsI421
(iasset
Asset
p1321
(dp1322
g3
g142
sg5
F654.72
sg6
g7
sg8
(dp1323
g10
F3.33
sg11
F3.5
sg12
I3
ssg13
g78
sbsI422
(iasset
Asset
p1324
(dp1325
g3
g531
sg5
I240
sg6
g7
sg8
(dp1326
g10
F3.9
sg11
F0.95
sg12
F6.06
ssg13
g67
sbsI423
(iasset
Asset
p1327
(dp1328
g3
g142
sg5
F519.99
sg6
g7
sg8
(dp1329
g10
F3.25
sg11
F3.33
sg12
F2.58
ssg13
g78
sbsI424
(iasset
Asset
p1330
(dp1331
g3
g681
sg5
F326.24
sg6
g7
sg8
(dp1332
g10
F4.45
sg11
F2.52
sg12
F2.96
ssg13
g14
sbsI425
(iasset
Asset
p1333
(dp1334
g3
g1112
sg5
I134
sg6
g7
sg8
(dp1335
g10
F2.04
sg11
F1.97
sg12
F2.87
ssg13
g78
sbsI426
(iasset
Asset
p1336
(dp1337
g3
g692
sg5
F409.99
sg6
g7
sg8
(dp1338
g10
F2.79
sg11
F2.83
sg12
F2.96
ssg13
g78
sbsI427
(iasset
Asset
p1339
(dp1340
g3
g49
sg5
I105
sg6
g7
sg8
(dp1341
g10
F3.93
sg11
F0.75
sg12
F2.14
ssg13
g19
sbsI428
(iasset
Asset
p1342
(dp1343
g3
g1108
sg5
I0
sg6
g7
sg8
(dp1344
g10
I2
sg11
F1.5
sg12
F2.5
ssg13
g19
sbsI429
(iasset
Asset
p1345
(dp1346
g3
VBunk Beds
p1347
sg5
I0
sg6
g7
sg8
(dp1348
g10
I8
sg11
F6.46
sg12
F5.98
ssg13
g14
sbsI430
(iasset
Asset
p1349
(dp1350
g3
g1112
sg5
F179.29
sg6
g7
sg8
(dp1351
g10
F1.92
sg11
F2.23
sg12
F2.91
ssg13
g78
sbsI431
(iasset
Asset
p1352
(dp1353
g3
g1108
sg5
I349
sg6
g7
sg8
(dp1354
g10
F4.67
sg11
F2.33
sg12
F2.5
ssg13
g19
sbsI432
(iasset
Asset
p1355
(dp1356
g3
g149
sg5
I185
sg6
g7
sg8
(dp1357
g10
F2.41
sg11
F2.41
sg12
F1.54
ssg13
g78
sbsI433
(iasset
Asset
p1358
(dp1359
g3
g39
sg5
I111
sg6
g7
sg8
(dp1360
g10
F1.01
sg11
F1.01
sg12
F1.44
ssg13
g19
sbsI434
(iasset
Asset
p1361
(dp1362
g3
g35
sg5
I448
sg6
g7
sg8
(dp1363
g10
F2.91
sg11
F2.91
sg12
I1
ssg13
g19
sbsI435
(iasset
Asset
p1364
(dp1365
g3
g709
sg5
I506
sg6
g7
sg8
(dp1366
g10
F2.81
sg11
F2.5
sg12
F3.58
ssg13
g78
sbsI436
(iasset
Asset
p1367
(dp1368
g3
g65
sg5
I3595
sg6
g7
sg8
(dp1369
g10
F3.33
sg11
F1.66
sg12
F7.08
ssg13
g67
sbsI437
(iasset
Asset
p1370
(dp1371
g3
g531
sg5
I0
sg6
g7
sg8
(dp1372
g10
I3
sg11
I1
sg12
F1.5
ssg13
g67
sbsI438
(iasset
Asset
p1373
(dp1374
g3
g1347
sg5
I0
sg6
g7
sg8
(dp1375
g10
I3
sg11
I6
sg12
F1.5
ssg13
g14
sbsI439
(iasset
Asset
p1376
(dp1377
g3
g713
sg5
I117
sg6
g7
sg8
(dp1378
g10
F1.33
sg11
F3.66
sg12
F1.58
ssg13
g78
sbsI440
(iasset
Asset
p1379
(dp1380
g3
g76
sg5
I218
sg6
g7
sg8
(dp1381
g10
F1.5
sg11
F1.73
sg12
F2.67
ssg13
g78
sbsI441
(iasset
Asset
p1382
(dp1383
g3
g366
sg5
I271
sg6
g7
sg8
(dp1384
g10
I5
sg11
I3
sg12
F2.5
ssg13
g368
sbsI442
(iasset
Asset
p1385
(dp1386
g3
g76
sg5
I218
sg6
g7
sg8
(dp1387
g10
F1.52
sg11
F1.73
sg12
F2.6
ssg13
g78
sbs.