(dp0
I0
(iasset
Asset
p1
(dp2
S'_vertical'
p3
VArm Chairs
p4
sS'_price'
p5
I1895
sS'_category'
p6
VFurniture
p7
sS'_dimension'
p8
(dp9
S'width'
p10
F31.75
sS'depth'
p11
I36
sS'height'
p12
F31.75
ssS'_subcategory'
p13
VChairs
p14
sbsI1
(iasset
Asset
p15
(dp16
g3
VQueen Sized Beds
p17
sg5
I2099
sg6
g7
sg8
(dp18
g10
F6.42
sg11
F7.42
sg12
F3.08
ssg13
VBeds
p19
sbsI2
(iasset
Asset
p20
(dp21
g3
VBedside Tables
p22
sg5
F236.99
sg6
g7
sg8
(dp23
g10
F1.67
sg11
F1.33
sg12
F1.83
ssg13
VTables
p24
sbsI3
(iasset
Asset
p25
(dp26
g3
g22
sg5
I449
sg6
g7
sg8
(dp27
g10
F1.92
sg11
F1.52
sg12
F2.08
ssg13
g24
sbsI4
(iasset
Asset
p28
(dp29
g3
Vsofa sets
p30
sg5
I499
sg6
g7
sg8
(dp31
g10
F1.67
sg11
F2.5
sg12
F2.5
ssg13
VSofas
p32
sbsI5
(iasset
Asset
p33
(dp34
g3
VChest of Drawers
p35
sg5
I1099
sg6
g7
sg8
(dp36
g10
F2.67
sg11
F1.67
sg12
F4.23
ssg13
VDrawers
p37
sbsI6
(iasset
Asset
p38
(dp39
g3
VCoffee Tables
p40
sg5
I210
sg6
g7
sg8
(dp41
g10
F2.96
sg11
F2.96
sg12
F1.5
ssg13
g24
sbsI7
(iasset
Asset
p42
(dp43
g3
VEnd Tables
p44
sg5
I199
sg6
g7
sg8
(dp45
g10
F1.83
sg11
F1.33
sg12
F1.58
ssg13
g24
sbsI8
(iasset
Asset
p46
(dp47
g3
g30
sg5
I6495
sg6
g7
sg8
(dp48
g10
F0.83
sg11
F3.17
sg12
F2.5
ssg13
g32
sbsI9
(iasset
Asset
p49
(dp50
g3
g30
sg5
I6495
sg6
g7
sg8
(dp51
g10
F0.83
sg11
F3.17
sg12
F2.5
ssg13
g32
sbsI10
(iasset
Asset
p52
(dp53
g3
VConsole Tables
p54
sg5
I1850
sg6
g7
sg8
(dp55
g10
F4.83
sg11
F1.5
sg12
F2.5
ssg13
g24
sbsI11
(iasset
Asset
p56
(dp57
g3
g44
sg5
I399
sg6
g7
sg8
(dp58
g10
F1.25
sg11
F1.25
sg12
F1.92
ssg13
g24
sbsI12
(iasset
Asset
p59
(dp60
g3
g54
sg5
I2625
sg6
g7
sg8
(dp61
g10
I6
sg11
F1.17
sg12
F2.5
ssg13
g24
sbsI13
(iasset
Asset
p62
(dp63
g3
g54
sg5
I2050
sg6
g7
sg8
(dp64
g10
F5.92
sg11
F1.5
sg12
F0.22
ssg13
g24
sbsI14
(iasset
Asset
p65
(dp66
g3
VSectional Sofas
p67
sg5
I4699
sg6
g7
sg8
(dp68
g10
F10.75
sg11
F7.58
sg12
I3
ssg13
g32
sbsI15
(iasset
Asset
p69
(dp70
g3
g40
sg5
I2095
sg6
g7
sg8
(dp71
g10
I5
sg11
I4
sg12
F1.5
ssg13
g24
sbsI16
(iasset
Asset
p72
(dp73
g3
VCrockery Units
p74
sg5
I3395
sg6
g7
sg8
(dp75
g10
F3.92
sg11
F1.5
sg12
F7.58
ssg13
VDisplay Units
p76
sbsI17
(iasset
Asset
p77
(dp78
g3
g30
sg5
I2699
sg6
g7
sg8
(dp79
g10
F6.46
sg11
I3
sg12
F2.67
ssg13
g32
sbsI18
(iasset
Asset
p80
(dp81
g3
g54
sg5
I399
sg6
g7
sg8
(dp82
g10
F4.04
sg11
F1.38
sg12
F2.5
ssg13
g24
sbsI19
(iasset
Asset
p83
(dp84
g3
VAccent Chairs
p85
sg5
I974
sg6
g7
sg8
(dp86
g10
F2.33
sg11
F2.96
sg12
F2.42
ssg13
g14
sbsI20
(iasset
Asset
p87
(dp88
g3
g44
sg5
I499
sg6
g7
sg8
(dp89
g10
F2.25
sg11
F1.42
sg12
F2.17
ssg13
g24
sbsI21
(iasset
Asset
p90
(dp91
g3
g40
sg5
I1099
sg6
g7
sg8
(dp92
g10
I5
sg11
F3.5
sg12
F1.58
ssg13
g24
sbsI22
(iasset
Asset
p93
(dp94
g3
g85
sg5
I2199
sg6
g7
sg8
(dp95
g10
F3.08
sg11
I2
sg12
F3.75
ssg13
g14
sbsI23
(iasset
Asset
p96
(dp97
g3
g54
sg5
I439
sg6
g7
sg8
(dp98
g10
F1.33
sg11
F5.25
sg12
F2.75
ssg13
g24
sbsI24
(iasset
Asset
p99
(dp100
g3
g67
sg5
I2998
sg6
g7
sg8
(dp101
g10
F10.33
sg11
F5.33
sg12
F3.08
ssg13
g32
sbsI25
(iasset
Asset
p102
(dp103
g3
VTV Units
p104
sg5
I2610
sg6
g7
sg8
(dp105
g10
F6.33
sg11
F1.5
sg12
F1.5
ssg13
VTV Units
p106
sbsI26
(iasset
Asset
p107
(dp108
g3
VShowcase Units
p109
sg5
I1050
sg6
g7
sg8
(dp110
g10
F5.54
sg11
F1.54
sg12
F6.15
ssg13
g76
sbsI27
(iasset
Asset
p111
(dp112
g3
g40
sg5
I1399
sg6
g7
sg8
(dp113
g10
F4.92
sg11
F3.44
sg12
F1.73
ssg13
g24
sbsI28
(iasset
Asset
p114
(dp115
g3
g40
sg5
F239.4
sg6
g7
sg8
(dp116
g10
F2.65
sg11
F2.65
sg12
F0.13
ssg13
g24
sbsI29
(iasset
Asset
p117
(dp118
g3
g40
sg5
I799
sg6
g7
sg8
(dp119
g10
F5.58
sg11
F2.29
sg12
F1.15
ssg13
g24
sbsI30
(iasset
Asset
p120
(dp121
g3
g30
sg5
I1499
sg6
g7
sg8
(dp122
g10
F6.42
sg11
F2.92
sg12
F2.75
ssg13
g32
sbsI31
(iasset
Asset
p123
(dp124
g3
g40
sg5
I599
sg6
g7
sg8
(dp125
g10
F2.67
sg11
F2.67
sg12
F1.35
ssg13
g24
sbsI32
(iasset
Asset
p126
(dp127
g3
g30
sg5
I1299
sg6
g7
sg8
(dp128
g10
F6.33
sg11
F3.08
sg12
F2.67
ssg13
g32
sbsI33
(iasset
Asset
p129
(dp130
g3
g40
sg5
I599
sg6
g7
sg8
(dp131
g10
I3
sg11
I3
sg12
F1.38
ssg13
g24
sbsI34
(iasset
Asset
p132
(dp133
g3
g40
sg5
I119
sg6
g7
sg8
(dp134
g10
I3
sg11
I3
sg12
F1.58
ssg13
g24
sbsI35
(iasset
Asset
p135
(dp136
g3
g30
sg5
I1199
sg6
g7
sg8
(dp137
g10
I6
sg11
F2.75
sg12
F2.75
ssg13
g32
sbsI36
(iasset
Asset
p138
(dp139
g3
g30
sg5
I2000
sg6
g7
sg8
(dp140
g10
I204
sg11
I100
sg12
I202
ssg13
g32
sbsI37
(iasset
Asset
p141
(dp142
g3
g109
sg5
I299
sg6
g7
sg8
(dp143
g10
F2.16
sg11
F0.66
sg12
F2.16
ssg13
g76
sbsI38
(iasset
Asset
p144
(dp145
g3
VSofa cum Beds
p146
sg5
I999
sg6
g7
sg8
(dp147
g10
F6.6
sg11
F3.29
sg12
F2.75
ssg13
g32
sbsI39
(iasset
Asset
p148
(dp149
g3
g40
sg5
I799
sg6
g7
sg8
(dp150
g10
I5
sg11
I2
sg12
F1.45
ssg13
g24
sbsI40
(iasset
Asset
p151
(dp152
g3
g40
sg5
I799
sg6
g7
sg8
(dp153
g10
I5
sg11
I2
sg12
F1.45
ssg13
g24
sbsI41
(iasset
Asset
p154
(dp155
g3
g4
sg5
I299
sg6
g7
sg8
(dp156
g10
F2.46
sg11
F2.58
sg12
F2.54
ssg13
g14
sbsI42
(iasset
Asset
p157
(dp158
g3
g40
sg5
I279
sg6
g7
sg8
(dp159
g10
I3
sg11
I3
sg12
F1.6
ssg13
g24
sbsI43
(iasset
Asset
p160
(dp161
g3
VOttomans
p162
sg5
I299
sg6
g7
sg8
(dp163
g10
F1.5
sg11
F1.5
sg12
F1.44
ssg13
g14
sbsI44
(iasset
Asset
p164
(dp165
g3
g162
sg5
I209
sg6
g7
sg8
(dp166
g10
F1.6
sg11
F1.16
sg12
F1.54
ssg13
g14
sbsI45
(iasset
Asset
p167
(dp168
g3
g104
sg5
I1299
sg6
g7
sg8
(dp169
g10
F5.6
sg11
F1.54
sg12
F1.83
ssg13
g106
sbsI46
(iasset
Asset
p170
(dp171
g3
g30
sg5
F629.99
sg6
g7
sg8
(dp172
g10
F7.17
sg11
F3.17
sg12
I3
ssg13
g32
sbsI47
(iasset
Asset
p173
(dp174
g3
g30
sg5
F218.99
sg6
g7
sg8
(dp175
g10
F4.34
sg11
F2.18
sg12
F2.61
ssg13
g32
sbsI48
(iasset
Asset
p176
(dp177
g3
g30
sg5
F266.99
sg6
g7
sg8
(dp178
g10
F3.61
sg11
F2.33
sg12
F2.53
ssg13
g32
sbsI49
(iasset
Asset
p179
(dp180
g3
g30
sg5
F349.99
sg6
g7
sg8
(dp181
g10
F4.63
sg11
F2.65
sg12
F2.57
ssg13
g32
sbsI50
(iasset
Asset
p182
(dp183
g3
g30
sg5
F393.99
sg6
g7
sg8
(dp184
g10
F7.2
sg11
F2.84
sg12
F2.65
ssg13
g32
sbsI51
(iasset
Asset
p185
(dp186
g3
g30
sg5
F659.99
sg6
g7
sg8
(dp187
g10
F7.49
sg11
F3.25
sg12
F3.34
ssg13
g32
sbsI52
(iasset
Asset
p188
(dp189
g3
g30
sg5
F359.99
sg6
g7
sg8
(dp190
g10
F5.08
sg11
F2.79
sg12
F2.92
ssg13
g32
sbsI53
(iasset
Asset
p191
(dp192
g3
g30
sg5
F499.99
sg6
g7
sg8
(dp193
g10
F4.81
sg11
F2.52
sg12
F4.16
ssg13
g32
sbsI54
(iasset
Asset
p194
(dp195
g3
g30
sg5
F625.99
sg6
g7
sg8
(dp196
g10
F7.16
sg11
F2.75
sg12
F2.96
ssg13
g32
sbsI55
(iasset
Asset
p197
(dp198
g3
g30
sg5
F191.99
sg6
g7
sg8
(dp199
g10
F3.75
sg11
F2.34
sg12
F2.24
ssg13
g32
sbsI56
(iasset
Asset
p200
(dp201
g3
g30
sg5
F322.99
sg6
g7
sg8
(dp202
g10
F4.48
sg11
F2.79
sg12
F2.71
ssg13
g32
sbsI57
(iasset
Asset
p203
(dp204
g3
g30
sg5
F569.99
sg6
g7
sg8
(dp205
g10
F5.87
sg11
F2.42
sg12
F2.71
ssg13
g32
sbsI58
(iasset
Asset
p206
(dp207
g3
g30
sg5
F749.99
sg6
g7
sg8
(dp208
g10
F6.67
sg11
F2.67
sg12
F2.71
ssg13
g32
sbsI59
(iasset
Asset
p209
(dp210
g3
g30
sg5
F925.99
sg6
g7
sg8
(dp211
g10
I6
sg11
F2.59
sg12
F2.75
ssg13
g32
sbsI60
(iasset
Asset
p212
(dp213
g3
g30
sg5
F269.99
sg6
g7
sg8
(dp214
g10
F3.73
sg11
F2.44
sg12
F2.61
ssg13
g32
sbsI61
(iasset
Asset
p215
(dp216
g3
g30
sg5
F589.99
sg6
g7
sg8
(dp217
g10
F7.37
sg11
F3.13
sg12
F3.23
ssg13
g32
sbsI62
(iasset
Asset
p218
(dp219
g3
g30
sg5
I829
sg6
g7
sg8
(dp220
g10
F7.17
sg11
F3.08
sg12
F2.67
ssg13
g32
sbsI63
(iasset
Asset
p221
(dp222
g3
g30
sg5
I1049
sg6
g7
sg8
(dp223
g10
F7.16
sg11
F3.23
sg12
F2.9
ssg13
g32
sbsI64
(iasset
Asset
p224
(dp225
g3
g30
sg5
F409.99
sg6
g7
sg8
(dp226
g10
F4.75
sg11
F2.5
sg12
F2.66
ssg13
g32
sbsI65
(iasset
Asset
p227
(dp228
g3
g30
sg5
F391.99
sg6
g7
sg8
(dp229
g10
F7.42
sg11
F3.26
sg12
F3.34
ssg13
g32
sbsI66
(iasset
Asset
p230
(dp231
g3
g162
sg5
F72.99
sg6
g7
sg8
(dp232
g10
F1.42
sg11
F1.42
sg12
F1.5
ssg13
g14
sbsI67
(iasset
Asset
p233
(dp234
g3
g162
sg5
F239.99
sg6
g7
sg8
(dp235
g10
F2.88
sg11
F2.85
sg12
F1.71
ssg13
g14
sbsI68
(iasset
Asset
p236
(dp237
g3
g162
sg5
F123.99
sg6
g7
sg8
(dp238
g10
F3.58
sg11
F1.83
sg12
F1.5
ssg13
g14
sbsI69
(iasset
Asset
p239
(dp240
g3
g162
sg5
F68.99
sg6
g7
sg8
(dp241
g10
F1.46
sg11
F1.45
sg12
F1.38
ssg13
g14
sbsI70
(iasset
Asset
p242
(dp243
g3
g162
sg5
F213.29
sg6
g7
sg8
(dp244
g10
F2.92
sg11
F2.92
sg12
F1.5
ssg13
g14
sbsI71
(iasset
Asset
p245
(dp246
g3
g162
sg5
F99.99
sg6
g7
sg8
(dp247
g10
F2.33
sg11
F1.58
sg12
F1.5
ssg13
g14
sbsI72
(iasset
Asset
p248
(dp249
g3
g162
sg5
F267.99
sg6
g7
sg8
(dp250
g10
F3.01
sg11
F3.01
sg12
F1.67
ssg13
g14
sbsI73
(iasset
Asset
p251
(dp252
g3
g162
sg5
F84.23
sg6
g7
sg8
(dp253
g10
F1.67
sg11
F1.67
sg12
F1.17
ssg13
g14
sbsI74
(iasset
Asset
p254
(dp255
g3
g162
sg5
F87.99
sg6
g7
sg8
(dp256
g10
I3
sg11
F1.5
sg12
F1.54
ssg13
g14
sbsI75
(iasset
Asset
p257
(dp258
g3
g162
sg5
F100.99
sg6
g7
sg8
(dp259
g10
F1.69
sg11
F1.71
sg12
F1.62
ssg13
g14
sbsI76
(iasset
Asset
p260
(dp261
g3
g162
sg5
F187.99
sg6
g7
sg8
(dp262
g10
F2.96
sg11
F2.96
sg12
F1.46
ssg13
g14
sbsI77
(iasset
Asset
p263
(dp264
g3
g162
sg5
F206.99
sg6
g7
sg8
(dp265
g10
F3.58
sg11
F1.92
sg12
F1.5
ssg13
g14
sbsI78
(iasset
Asset
p266
(dp267
g3
g162
sg5
F117.99
sg6
g7
sg8
(dp268
g10
F3.17
sg11
F1.58
sg12
F1.33
ssg13
g14
sbsI79
(iasset
Asset
p269
(dp270
g3
g162
sg5
F156.99
sg6
g7
sg8
(dp271
g10
I2
sg11
I2
sg12
F1.38
ssg13
g14
sbsI80
(iasset
Asset
p272
(dp273
g3
g162
sg5
F184.49
sg6
g7
sg8
(dp274
g10
I4
sg11
F2.29
sg12
F1.52
ssg13
g14
sbsI81
(iasset
Asset
p275
(dp276
g3
g162
sg5
F74.99
sg6
g7
sg8
(dp277
g10
F1.42
sg11
F1.42
sg12
F1.4
ssg13
g14
sbsI82
(iasset
Asset
p278
(dp279
g3
g162
sg5
F165.99
sg6
g7
sg8
(dp280
g10
F1.5
sg11
F1.26
sg12
F1.38
ssg13
g14
sbsI83
(iasset
Asset
p281
(dp282
g3
g162
sg5
F380.99
sg6
g7
sg8
(dp283
g10
F4.09
sg11
F2.67
sg12
F1.38
ssg13
g14
sbsI84
(iasset
Asset
p284
(dp285
g3
g162
sg5
F34.99
sg6
g7
sg8
(dp286
g10
F1.25
sg11
F1.25
sg12
F1.25
ssg13
g14
sbsI85
(iasset
Asset
p287
(dp288
g3
g162
sg5
F336.99
sg6
g7
sg8
(dp289
g10
F3.42
sg11
F3.42
sg12
F1.67
ssg13
g14
sbsI86
(iasset
Asset
p290
(dp291
g3
g74
sg5
F375.99
sg6
g7
sg8
(dp292
g10
F3.93
sg11
F1.71
sg12
I3
ssg13
g76
sbsI87
(iasset
Asset
p293
(dp294
g3
g74
sg5
F416.99
sg6
g7
sg8
(dp295
g10
F4.33
sg11
F2.08
sg12
I3
ssg13
g76
sbsI88
(iasset
Asset
p296
(dp297
g3
g74
sg5
F379.99
sg6
g7
sg8
(dp298
g10
F3.9
sg11
F1.67
sg12
I3
ssg13
g76
sbsI89
(iasset
Asset
p299
(dp300
g3
g74
sg5
F189.99
sg6
g7
sg8
(dp301
g10
F2.68
sg11
F1.36
sg12
F2.82
ssg13
g76
sbsI90
(iasset
Asset
p302
(dp303
g3
g74
sg5
F629.99
sg6
g7
sg8
(dp304
g10
I4
sg11
I2
sg12
F2.9
ssg13
g76
sbsI91
(iasset
Asset
p305
(dp306
g3
g74
sg5
F156.17
sg6
g7
sg8
(dp307
g10
F3.95
sg11
F1.42
sg12
F2.61
ssg13
g76
sbsI92
(iasset
Asset
p308
(dp309
g3
g74
sg5
F1409.99
sg6
g7
sg8
(dp310
g10
I5
sg11
F3.74
sg12
F3.69
ssg13
g76
sbsI93
(iasset
Asset
p311
(dp312
g3
g74
sg5
F325.7
sg6
g7
sg8
(dp313
g10
F4.33
sg11
F1.5
sg12
I3
ssg13
g76
sbsI94
(iasset
Asset
p314
(dp315
g3
g74
sg5
F125.99
sg6
g7
sg8
(dp316
g10
F3.75
sg11
F1.3
sg12
F2.91
ssg13
g76
sbsI95
(iasset
Asset
p317
(dp318
g3
g44
sg5
F48.99
sg6
g7
sg8
(dp319
g10
F1.58
sg11
F1.29
sg12
F1.62
ssg13
g24
sbsI96
(iasset
Asset
p320
(dp321
g3
g44
sg5
F35.99
sg6
g7
sg8
(dp322
g10
F1.12
sg11
F1.12
sg12
F1.67
ssg13
g24
sbsI97
(iasset
Asset
p323
(dp324
g3
g44
sg5
F72.99
sg6
g7
sg8
(dp325
g10
F0.83
sg11
F1.33
sg12
F2.11
ssg13
g24
sbsI98
(iasset
Asset
p326
(dp327
g3
g44
sg5
F82.99
sg6
g7
sg8
(dp328
g10
F1.57
sg11
F1.32
sg12
F2.15
ssg13
g24
sbsI99
(iasset
Asset
p329
(dp330
g3
g44
sg5
F203.99
sg6
g7
sg8
(dp331
g10
I2
sg11
I2
sg12
F2.01
ssg13
g24
sbsI100
(iasset
Asset
p332
(dp333
g3
g44
sg5
F122.99
sg6
g7
sg8
(dp334
g10
F1.16
sg11
F1.16
sg12
F1.47
ssg13
g24
sbsI101
(iasset
Asset
p335
(dp336
g3
g44
sg5
F118.99
sg6
g7
sg8
(dp337
g10
F1.67
sg11
F1.5
sg12
F1.62
ssg13
g24
sbsI102
(iasset
Asset
p338
(dp339
g3
g44
sg5
F87.85
sg6
g7
sg8
(dp340
g10
F1.19
sg11
F1.8
sg12
F1.99
ssg13
g24
sbsI103
(iasset
Asset
p341
(dp342
g3
g44
sg5
F79.99
sg6
g7
sg8
(dp343
g10
I2
sg11
I1
sg12
F1.83
ssg13
g24
sbsI104
(iasset
Asset
p344
(dp345
g3
g44
sg5
F122.1
sg6
g7
sg8
(dp346
g10
F1.68
sg11
F1.67
sg12
F1.64
ssg13
g24
sbsI105
(iasset
Asset
p347
(dp348
g3
g44
sg5
F124.42
sg6
g7
sg8
(dp349
g10
F1.42
sg11
F1.42
sg12
F1.93
ssg13
g24
sbsI106
(iasset
Asset
p350
(dp351
g3
g44
sg5
F163.99
sg6
g7
sg8
(dp352
g10
F2.17
sg11
F2.17
sg12
F2.21
ssg13
g24
sbsI107
(iasset
Asset
p353
(dp354
g3
g44
sg5
F143.99
sg6
g7
sg8
(dp355
g10
F1.96
sg11
F2.14
sg12
F2.58
ssg13
g24
sbsI108
(iasset
Asset
p356
(dp357
g3
g44
sg5
F101.99
sg6
g7
sg8
(dp358
g10
F1.47
sg11
F1.47
sg12
I2
ssg13
g24
sbsI109
(iasset
Asset
p359
(dp360
g3
g44
sg5
F68.99
sg6
g7
sg8
(dp361
g10
F1.31
sg11
F1.31
sg12
I2
ssg13
g24
sbsI110
(iasset
Asset
p362
(dp363
g3
g44
sg5
F54.99
sg6
g7
sg8
(dp364
g10
I1
sg11
I2
sg12
I2
ssg13
g24
sbsI111
(iasset
Asset
p365
(dp366
g3
g44
sg5
F134.99
sg6
g7
sg8
(dp367
g10
F1.06
sg11
F1.83
sg12
F1.9
ssg13
g24
sbsI112
(iasset
Asset
p368
(dp369
g3
g44
sg5
F88.99
sg6
g7
sg8
(dp370
g10
I1
sg11
I2
sg12
I2
ssg13
g24
sbsI113
(iasset
Asset
p371
(dp372
g3
g44
sg5
F57.99
sg6
g7
sg8
(dp373
g10
F1.29
sg11
F1.29
sg12
F1.46
ssg13
g24
sbsI114
(iasset
Asset
p374
(dp375
g3
g44
sg5
F38.59
sg6
g7
sg8
(dp376
g10
F1.24
sg11
F0.92
sg12
I2
ssg13
g24
sbsI115
(iasset
Asset
p377
(dp378
g3
VDining Tables
p379
sg5
F385.99
sg6
g7
sg8
(dp380
g10
F4.5
sg11
F4.5
sg12
F2.59
ssg13
VDining
p381
sbsI116
(iasset
Asset
p382
(dp383
g3
g379
sg5
F178.49
sg6
g7
sg8
(dp384
g10
F2.75
sg11
F3.5
sg12
F2.46
ssg13
g381
sbsI117
(iasset
Asset
p385
(dp386
g3
g379
sg5
F272.99
sg6
g7
sg8
(dp387
g10
F3.93
sg11
F3.93
sg12
F2.53
ssg13
g381
sbsI118
(iasset
Asset
p388
(dp389
g3
g379
sg5
F519.99
sg6
g7
sg8
(dp390
g10
F4.97
sg11
F3.5
sg12
F2.51
ssg13
g381
sbsI119
(iasset
Asset
p391
(dp392
g3
g379
sg5
I306
sg6
g7
sg8
(dp393
g10
I4
sg11
F1.5
sg12
F2.5
ssg13
g381
sbsI120
(iasset
Asset
p394
(dp395
g3
g379
sg5
F475.99
sg6
g7
sg8
(dp396
g10
F4.17
sg11
F4.17
sg12
F2.5
ssg13
g381
sbsI121
(iasset
Asset
p397
(dp398
g3
g379
sg5
F1099.99
sg6
g7
sg8
(dp399
g10
F9.33
sg11
F3.5
sg12
F2.5
ssg13
g381
sbsI122
(iasset
Asset
p400
(dp401
g3
g379
sg5
F581.75
sg6
g7
sg8
(dp402
g10
F5.46
sg11
I4
sg12
F2.52
ssg13
g381
sbsI123
(iasset
Asset
p403
(dp404
g3
g379
sg5
F511.99
sg6
g7
sg8
(dp405
g10
F5.88
sg11
F3.62
sg12
F2.46
ssg13
g381
sbsI124
(iasset
Asset
p406
(dp407
g3
g379
sg5
F293.99
sg6
g7
sg8
(dp408
g10
F4.92
sg11
F2.96
sg12
F2.47
ssg13
g381
sbsI125
(iasset
Asset
p409
(dp410
g3
g379
sg5
F167.99
sg6
g7
sg8
(dp411
g10
F3.29
sg11
F3.29
sg12
F2.48
ssg13
g381
sbsI126
(iasset
Asset
p412
(dp413
g3
g379
sg5
F383.99
sg6
g7
sg8
(dp414
g10
F5.92
sg11
F2.97
sg12
F2.48
ssg13
g381
sbsI127
(iasset
Asset
p415
(dp416
g3
g379
sg5
F793.99
sg6
g7
sg8
(dp417
g10
F3.29
sg11
F6.92
sg12
F2.5
ssg13
g381
sbsI128
(iasset
Asset
p418
(dp419
g3
g379
sg5
F385.99
sg6
g7
sg8
(dp420
g10
F5.25
sg11
I3
sg12
F2.58
ssg13
g381
sbsI129
(iasset
Asset
p421
(dp422
g3
g379
sg5
F153.99
sg6
g7
sg8
(dp423
g10
F3.93
sg11
F2.46
sg12
F2.42
ssg13
g381
sbsI130
(iasset
Asset
p424
(dp425
g3
VDining Chairs
p426
sg5
F187.99
sg6
g7
sg8
(dp427
g10
F1.56
sg11
F1.9
sg12
F3.28
ssg13
g381
sbsI131
(iasset
Asset
p428
(dp429
g3
g426
sg5
F155.99
sg6
g7
sg8
(dp430
g10
F1.59
sg11
F2.04
sg12
F3.14
ssg13
g381
sbsI132
(iasset
Asset
p431
(dp432
g3
g426
sg5
F121.99
sg6
g7
sg8
(dp433
g10
F3.12
sg11
F1.75
sg12
F2.71
ssg13
g381
sbsI133
(iasset
Asset
p434
(dp435
g3
g426
sg5
F203.99
sg6
g7
sg8
(dp436
g10
F2.08
sg11
F2.08
sg12
F2.58
ssg13
g381
sbsI134
(iasset
Asset
p437
(dp438
g3
g426
sg5
I207
sg6
g7
sg8
(dp439
g10
F1.88
sg11
F1.99
sg12
F3.17
ssg13
g381
sbsI135
(iasset
Asset
p440
(dp441
g3
g426
sg5
F156.99
sg6
g7
sg8
(dp442
g10
F2.01
sg11
F1.99
sg12
F2.65
ssg13
g381
sbsI136
(iasset
Asset
p443
(dp444
g3
g426
sg5
F157.99
sg6
g7
sg8
(dp445
g10
F1.59
sg11
F1.95
sg12
F3.16
ssg13
g381
sbsI137
(iasset
Asset
p446
(dp447
g3
g426
sg5
F202.99
sg6
g7
sg8
(dp448
g10
F1.53
sg11
F1.65
sg12
F2.87
ssg13
g381
sbsI138
(iasset
Asset
p449
(dp450
g3
g426
sg5
F253.99
sg6
g7
sg8
(dp451
g10
F1.62
sg11
I2
sg12
F2.85
ssg13
g381
sbsI139
(iasset
Asset
p452
(dp453
g3
g426
sg5
F127.99
sg6
g7
sg8
(dp454
g10
F1.36
sg11
F1.41
sg12
F3.21
ssg13
g381
sbsI140
(iasset
Asset
p455
(dp456
g3
g426
sg5
F95.5
sg6
g7
sg8
(dp457
g10
F1.71
sg11
F1.63
sg12
F2.87
ssg13
g381
sbsI141
(iasset
Asset
p458
(dp459
g3
g426
sg5
F60.99
sg6
g7
sg8
(dp460
g10
F4.26
sg11
F3.13
sg12
F3.19
ssg13
g381
sbsI142
(iasset
Asset
p461
(dp462
g3
g426
sg5
F130.99
sg6
g7
sg8
(dp463
g10
F1.51
sg11
F1.73
sg12
F2.77
ssg13
g381
sbsI143
(iasset
Asset
p464
(dp465
g3
g426
sg5
F199.99
sg6
g7
sg8
(dp466
g10
F1.54
sg11
F1.75
sg12
F2.71
ssg13
g381
sbsI144
(iasset
Asset
p467
(dp468
g3
g426
sg5
F60.89
sg6
g7
sg8
(dp469
g10
F1.54
sg11
F1.69
sg12
F2.65
ssg13
g381
sbsI145
(iasset
Asset
p470
(dp471
g3
g426
sg5
F75.99
sg6
g7
sg8
(dp472
g10
F2.04
sg11
F1.84
sg12
F2.66
ssg13
g381
sbsI146
(iasset
Asset
p473
(dp474
g3
g426
sg5
F149.99
sg6
g7
sg8
(dp475
g10
F1.49
sg11
F1.73
sg12
F2.95
ssg13
g381
sbsI147
(iasset
Asset
p476
(dp477
g3
g426
sg5
F106.78
sg6
g7
sg8
(dp478
g10
F1.79
sg11
F1.73
sg12
F3.04
ssg13
g381
sbsI148
(iasset
Asset
p479
(dp480
g3
g426
sg5
F212.99
sg6
g7
sg8
(dp481
g10
F1.71
sg11
F2.21
sg12
F3.22
ssg13
g381
sbsI149
(iasset
Asset
p482
(dp483
g3
g40
sg5
F172.99
sg6
g7
sg8
(dp484
g10
F3.93
sg11
F2.04
sg12
F1.33
ssg13
g24
sbsI150
(iasset
Asset
p485
(dp486
g3
g40
sg5
F256.99
sg6
g7
sg8
(dp487
g10
F3.5
sg11
F1.92
sg12
F1.5
ssg13
g24
sbsI151
(iasset
Asset
p488
(dp489
g3
g40
sg5
F109.88
sg6
g7
sg8
(dp490
g10
F3.5
sg11
I2
sg12
F1.5
ssg13
g24
sbsI152
(iasset
Asset
p491
(dp492
g3
g40
sg5
F255.99
sg6
g7
sg8
(dp493
g10
F3.91
sg11
F1.96
sg12
F1.33
ssg13
g24
sbsI153
(iasset
Asset
p494
(dp495
g3
g40
sg5
F120.99
sg6
g7
sg8
(dp496
g10
F3.94
sg11
F1.98
sg12
F1.5
ssg13
g24
sbsI154
(iasset
Asset
p497
(dp498
g3
g40
sg5
F179.99
sg6
g7
sg8
(dp499
g10
F3.56
sg11
F1.74
sg12
F1.55
ssg13
g24
sbsI155
(iasset
Asset
p500
(dp501
g3
g40
sg5
F147.99
sg6
g7
sg8
(dp502
g10
F3.67
sg11
F1.83
sg12
F1.67
ssg13
g24
sbsI156
(iasset
Asset
p503
(dp504
g3
g40
sg5
F194.7
sg6
g7
sg8
(dp505
g10
F3.58
sg11
F1.62
sg12
F1.56
ssg13
g24
sbsI157
(iasset
Asset
p506
(dp507
g3
g40
sg5
F108.38
sg6
g7
sg8
(dp508
g10
F3.5
sg11
F1.83
sg12
F1.5
ssg13
g24
sbsI158
(iasset
Asset
p509
(dp510
g3
g40
sg5
F182.99
sg6
g7
sg8
(dp511
g10
I3
sg11
I3
sg12
F1.5
ssg13
g24
sbsI159
(iasset
Asset
p512
(dp513
g3
g40
sg5
F124.14
sg6
g7
sg8
(dp514
g10
F3.02
sg11
F3.02
sg12
F1.59
ssg13
g24
sbsI160
(iasset
Asset
p515
(dp516
g3
g40
sg5
F215.99
sg6
g7
sg8
(dp517
g10
F2.95
sg11
F2.95
sg12
F1.05
ssg13
g24
sbsI161
(iasset
Asset
p518
(dp519
g3
g40
sg5
F124.69
sg6
g7
sg8
(dp520
g10
F3.5
sg11
F1.51
sg12
F1.54
ssg13
g24
sbsI162
(iasset
Asset
p521
(dp522
g3
g40
sg5
F195.99
sg6
g7
sg8
(dp523
g10
F2.85
sg11
F2.85
sg12
F1.31
ssg13
g24
sbsI163
(iasset
Asset
p524
(dp525
g3
g40
sg5
F260.99
sg6
g7
sg8
(dp526
g10
F3.94
sg11
F1.98
sg12
F1.5
ssg13
g24
sbsI164
(iasset
Asset
p527
(dp528
g3
g40
sg5
F320.5
sg6
g7
sg8
(dp529
g10
F3.33
sg11
F3.32
sg12
F1.5
ssg13
g24
sbsI165
(iasset
Asset
p530
(dp531
g3
g40
sg5
F186.68
sg6
g7
sg8
(dp532
g10
F2.86
sg11
F2.85
sg12
F1.36
ssg13
g24
sbsI166
(iasset
Asset
p533
(dp534
g3
g40
sg5
F134.99
sg6
g7
sg8
(dp535
g10
F2.67
sg11
F2.67
sg12
F1.5
ssg13
g24
sbsI167
(iasset
Asset
p536
(dp537
g3
g40
sg5
F313.99
sg6
g7
sg8
(dp538
g10
F3.83
sg11
F2.17
sg12
F1.67
ssg13
g24
sbsI168
(iasset
Asset
p539
(dp540
g3
g40
sg5
F189.99
sg6
g7
sg8
(dp541
g10
F2.96
sg11
F2.96
sg12
F1.5
ssg13
g24
sbsI169
(iasset
Asset
p542
(dp543
g3
VBookshelves
p544
sg5
F143.99
sg6
g7
sg8
(dp545
g10
F2.1
sg11
F1.51
sg12
I5
ssg13
g76
sbsI170
(iasset
Asset
p546
(dp547
g3
g544
sg5
F61.99
sg6
g7
sg8
(dp548
g10
F1.83
sg11
F1.21
sg12
F5.83
ssg13
g76
sbsI171
(iasset
Asset
p549
(dp550
g3
g544
sg5
F157.99
sg6
g7
sg8
(dp551
g10
F2.64
sg11
F1.06
sg12
F5.5
ssg13
g76
sbsI172
(iasset
Asset
p552
(dp553
g3
g544
sg5
F215.99
sg6
g7
sg8
(dp554
g10
F4.4
sg11
F1.08
sg12
F3.93
ssg13
g76
sbsI173
(iasset
Asset
p555
(dp556
g3
g544
sg5
F154.68
sg6
g7
sg8
(dp557
g10
F2.91
sg11
I1
sg12
F5.9
ssg13
g76
sbsI174
(iasset
Asset
p558
(dp559
g3
g544
sg5
F206.99
sg6
g7
sg8
(dp560
g10
F3.34
sg11
F1.08
sg12
I6
ssg13
g76
sbsI175
(iasset
Asset
p561
(dp562
g3
g544
sg5
F97.99
sg6
g7
sg8
(dp563
g10
F1.96
sg11
F0.97
sg12
F4.73
ssg13
g76
sbsI176
(iasset
Asset
p564
(dp565
g3
g544
sg5
F98.99
sg6
g7
sg8
(dp566
g10
F3.96
sg11
F0.97
sg12
F2.99
ssg13
g76
sbsI177
(iasset
Asset
p567
(dp568
g3
g544
sg5
F93.79
sg6
g7
sg8
(dp569
g10
F2.62
sg11
F0.98
sg12
F2.71
ssg13
g76
sbsI178
(iasset
Asset
p570
(dp571
g3
g85
sg5
F145.99
sg6
g7
sg8
(dp572
g10
F1.83
sg11
F2.48
sg12
F2.75
ssg13
g14
sbsI179
(iasset
Asset
p573
(dp574
g3
g85
sg5
F174.99
sg6
g7
sg8
(dp575
g10
F2.86
sg11
F2.32
sg12
F2.71
ssg13
g14
sbsI180
(iasset
Asset
p576
(dp577
g3
g85
sg5
F299.99
sg6
g7
sg8
(dp578
g10
F2.39
sg11
F2.07
sg12
F2.92
ssg13
g14
sbsI181
(iasset
Asset
p579
(dp580
g3
g85
sg5
F343.99
sg6
g7
sg8
(dp581
g10
F2.48
sg11
F2.79
sg12
F2.76
ssg13
g14
sbsI182
(iasset
Asset
p582
(dp583
g3
g85
sg5
F178.99
sg6
g7
sg8
(dp584
g10
F2.43
sg11
F2.2
sg12
F2.67
ssg13
g14
sbsI183
(iasset
Asset
p585
(dp586
g3
g85
sg5
F169.99
sg6
g7
sg8
(dp587
g10
F2.56
sg11
F2.29
sg12
F2.68
ssg13
g14
sbsI184
(iasset
Asset
p588
(dp589
g3
g85
sg5
F376.99
sg6
g7
sg8
(dp590
g10
F2.39
sg11
F2.75
sg12
F2.62
ssg13
g14
sbsI185
(iasset
Asset
p591
(dp592
g3
g85
sg5
F1199.99
sg6
g7
sg8
(dp593
g10
F3.05
sg11
F3.08
sg12
F3.77
ssg13
g14
sbsI186
(iasset
Asset
p594
(dp595
g3
g85
sg5
F423.99
sg6
g7
sg8
(dp596
g10
F2.44
sg11
F2.5
sg12
F3.28
ssg13
g14
sbsI187
(iasset
Asset
p597
(dp598
g3
g85
sg5
F329.99
sg6
g7
sg8
(dp599
g10
F1.84
sg11
F2.37
sg12
F2.88
ssg13
g14
sbsI188
(iasset
Asset
p600
(dp601
g3
g85
sg5
F204.99
sg6
g7
sg8
(dp602
g10
F2.07
sg11
F2.61
sg12
F2.62
ssg13
g14
sbsI189
(iasset
Asset
p603
(dp604
g3
g85
sg5
F365.99
sg6
g7
sg8
(dp605
g10
F2.69
sg11
F2.54
sg12
F2.67
ssg13
g14
sbsI190
(iasset
Asset
p606
(dp607
g3
g85
sg5
F135.99
sg6
g7
sg8
(dp608
g10
F2.06
sg11
F2.39
sg12
F2.67
ssg13
g14
sbsI191
(iasset
Asset
p609
(dp610
g3
g85
sg5
F186.99
sg6
g7
sg8
(dp611
g10
F2.42
sg11
F2.49
sg12
F2.46
ssg13
g14
sbsI192
(iasset
Asset
p612
(dp613
g3
g85
sg5
F278.99
sg6
g7
sg8
(dp614
g10
F2.24
sg11
F2.14
sg12
F2.27
ssg13
g14
sbsI193
(iasset
Asset
p615
(dp616
g3
g85
sg5
F213.99
sg6
g7
sg8
(dp617
g10
F2.35
sg11
F2.62
sg12
F2.73
ssg13
g14
sbsI194
(iasset
Asset
p618
(dp619
g3
g85
sg5
F266.99
sg6
g7
sg8
(dp620
g10
F2.14
sg11
F2.11
sg12
F2.95
ssg13
g14
sbsI195
(iasset
Asset
p621
(dp622
g3
g85
sg5
F379.99
sg6
g7
sg8
(dp623
g10
F2.17
sg11
F1.82
sg12
F2.69
ssg13
g14
sbsI196
(iasset
Asset
p624
(dp625
g3
g85
sg5
F339.99
sg6
g7
sg8
(dp626
g10
F3.83
sg11
F3.67
sg12
F3.17
ssg13
g14
sbsI197
(iasset
Asset
p627
(dp628
g3
g104
sg5
F83.99
sg6
g7
sg8
(dp629
g10
F4.05
sg11
F1.15
sg12
F1.25
ssg13
g106
sbsI198
(iasset
Asset
p630
(dp631
g3
g30
sg5
I1799
sg6
g7
sg8
(dp632
g10
F8.5
sg11
I3
sg12
I3
ssg13
g32
sbsI199
(iasset
Asset
p633
(dp634
g3
g544
sg5
F139.8
sg6
g7
sg8
(dp635
g10
F2.06
sg11
F1.33
sg12
I6
ssg13
g76
sbsI200
(iasset
Asset
p636
(dp637
g3
g35
sg5
F175.99
sg6
g7
sg8
(dp638
g10
F2.88
sg11
F1.22
sg12
F2.88
ssg13
g37
sbsI201
(iasset
Asset
p639
(dp640
g3
g379
sg5
I240
sg6
g7
sg8
(dp641
g10
I5
sg11
I3
sg12
F2.45
ssg13
g381
sbsI202
(iasset
Asset
p642
(dp643
g3
g426
sg5
I299
sg6
g7
sg8
(dp644
g10
F1.7
sg11
F2.04
sg12
F2.7
ssg13
g381
sbsI203
(iasset
Asset
p645
(dp646
g3
g54
sg5
F164.99
sg6
g7
sg8
(dp647
g10
F3.93
sg11
F1.12
sg12
F2.5
ssg13
g24
sbsI204
(iasset
Asset
p648
(dp649
g3
g30
sg5
I1299
sg6
g7
sg8
(dp650
g10
F6.2
sg11
F2.11
sg12
F2.7
ssg13
g32
sbsI205
(iasset
Asset
p651
(dp652
g3
g104
sg5
F79.99
sg6
g7
sg8
(dp653
g10
F4.05
sg11
F1.15
sg12
F1.25
ssg13
g106
sbsI206
(iasset
Asset
p654
(dp655
g3
V4 Seater Dining Table Sets
p656
sg5
F515.22
sg6
g7
sg8
(dp657
g10
I5
sg11
F2.95
sg12
F2.44
ssg13
g381
sbsI207
(iasset
Asset
p658
(dp659
g3
g85
sg5
F143.99
sg6
g7
sg8
(dp660
g10
F2.33
sg11
F2.33
sg12
F2.54
ssg13
g14
sbsI208
(iasset
Asset
p661
(dp662
g3
g30
sg5
I1874
sg6
g7
sg8
(dp663
g10
F7.2
sg11
F2.11
sg12
F2.7
ssg13
g32
sbsI209
(iasset
Asset
p664
(dp665
g3
g426
sg5
I299
sg6
g7
sg8
(dp666
g10
F1.7
sg11
F2.04
sg12
F2.7
ssg13
g381
sbsI210
(iasset
Asset
p667
(dp668
g3
g426
sg5
I299
sg6
g7
sg8
(dp669
g10
F1.7
sg11
F2.04
sg12
F2.7
ssg13
g381
sbsI211
(iasset
Asset
p670
(dp671
g3
g426
sg5
I299
sg6
g7
sg8
(dp672
g10
F1.7
sg11
F2.04
sg12
F2.7
ssg13
g381
sbsI212
(iasset
Asset
p673
(dp674
g3
g30
sg5
I799
sg6
g7
sg8
(dp675
g10
I6
sg11
F2.6
sg12
F2.7
ssg13
g32
sbsI213
(iasset
Asset
p676
(dp677
g3
g40
sg5
I399
sg6
g7
sg8
(dp678
g10
F3.8
sg11
F1.7
sg12
F1.6
ssg13
g24
sbsI214
(iasset
Asset
p679
(dp680
g3
VLoveseats
p681
sg5
F729.99
sg6
g7
sg8
(dp682
g10
F6.5
sg11
F2.75
sg12
F2.7
ssg13
g32
sbsI215
(iasset
Asset
p683
(dp684
g3
g40
sg5
I399
sg6
g7
sg8
(dp685
g10
I3
sg11
I3
sg12
F1.6
ssg13
g24
sbsI216
(iasset
Asset
p686
(dp687
g3
g30
sg5
I1874
sg6
g7
sg8
(dp688
g10
F6.2
sg11
F1.11
sg12
F2.8
ssg13
g32
sbsI217
(iasset
Asset
p689
(dp690
g3
g30
sg5
I1699
sg6
g7
sg8
(dp691
g10
I7
sg11
F2.83
sg12
F2.5
ssg13
g32
sbsI218
(iasset
Asset
p692
(dp693
g3
g85
sg5
F174.99
sg6
g7
sg8
(dp694
g10
F30.5
sg11
F27.5
sg12
I32
ssg13
g14
sbsI219
(iasset
Asset
p695
(dp696
g3
VSingle Beds
p697
sg5
I169
sg6
g7
sg8
(dp698
g10
F3.1
sg11
F2.4
sg12
F0.66
ssg13
g19
sbsI220
(iasset
Asset
p699
(dp700
g3
g379
sg5
I1799
sg6
g7
sg8
(dp701
g10
F6.4
sg11
F2.5
sg12
F2.5
ssg13
g381
sbsI221
(iasset
Asset
p702
(dp703
g3
g67
sg5
I2677
sg6
g7
sg8
(dp704
g10
F8.04
sg11
F8.04
sg12
F2.66
ssg13
g32
sbsI222
(iasset
Asset
p705
(dp706
g3
VWing Chairs
p707
sg5
I998
sg6
g7
sg8
(dp708
g10
F2.32
sg11
F2.9
sg12
F3.24
ssg13
g14
sbsI223
(iasset
Asset
p709
(dp710
g3
g426
sg5
I299
sg6
g7
sg8
(dp711
g10
F1.7
sg11
F2.04
sg12
F2.7
ssg13
g381
sbsI224
(iasset
Asset
p712
(dp713
g3
g426
sg5
I299
sg6
g7
sg8
(dp714
g10
F1.7
sg11
F2.04
sg12
F2.7
ssg13
g381
sbsI225
(iasset
Asset
p715
(dp716
g3
g54
sg5
F169.99
sg6
g7
sg8
(dp717
g10
F3.47
sg11
F1.18
sg12
F2.66
ssg13
g24
sbsI226
(iasset
Asset
p718
(dp719
g3
VBar Chairs
p720
sg5
F186.44
sg6
g7
sg8
(dp721
g10
F1.57
sg11
F1.41
sg12
F2.95
ssg13
g14
sbsI227
(iasset
Asset
p722
(dp723
g3
VLounge Chairs
p724
sg5
I699
sg6
g7
sg8
(dp725
g10
F2.1
sg11
F2.63
sg12
F2.69
ssg13
g14
sbsI228
(iasset
Asset
p726
(dp727
g3
VBenches
p728
sg5
I499
sg6
g7
sg8
(dp729
g10
F3.87
sg11
F1.35
sg12
F1.95
ssg13
g14
sbsI229
(iasset
Asset
p730
(dp731
g3
g379
sg5
I1399
sg6
g7
sg8
(dp732
g10
F3.9
sg11
F3.9
sg12
F2.45
ssg13
g381
sbsI230
(iasset
Asset
p733
(dp734
g3
g656
sg5
I699
sg6
g7
sg8
(dp735
g10
F4.5
sg11
F2.6
sg12
F2.5
ssg13
g381
sbsI231
(iasset
Asset
p736
(dp737
g3
g656
sg5
I0
sg6
g7
sg8
(dp738
g10
F1.7
sg11
F2.04
sg12
F2.7
ssg13
g381
sbsI232
(iasset
Asset
p739
(dp740
g3
g544
sg5
F182.99
sg6
g7
sg8
(dp741
g10
F1.5
sg11
I1
sg12
F6.08
ssg13
g76
sbsI233
(iasset
Asset
p742
(dp743
g3
g656
sg5
F539.99
sg6
g7
sg8
(dp744
g10
F2.95
sg11
F2.95
sg12
F2.5
ssg13
g381
sbsI234
(iasset
Asset
p745
(dp746
g3
g656
sg5
I799
sg6
g7
sg8
(dp747
g10
F3.66
sg11
F3.66
sg12
F2.5
ssg13
g381
sbsI235
(iasset
Asset
p748
(dp749
g3
g104
sg5
F745.22
sg6
g7
sg8
(dp750
g10
I6
sg11
F1.5
sg12
F3.25
ssg13
g106
sbsI236
(iasset
Asset
p751
(dp752
g3
g104
sg5
F641.92
sg6
g7
sg8
(dp753
g10
I5
sg11
F1.33
sg12
I3
ssg13
g106
sbsI237
(iasset
Asset
p754
(dp755
g3
g720
sg5
F459.99
sg6
g7
sg8
(dp756
g10
F1.95
sg11
F1.83
sg12
F2.95
ssg13
g14
sbsI238
(iasset
Asset
p757
(dp758
g3
g720
sg5
F589.99
sg6
g7
sg8
(dp759
g10
F1.62
sg11
F1.75
sg12
F3.45
ssg13
g14
sbsI239
(iasset
Asset
p760
(dp761
g3
g40
sg5
F249.99
sg6
g7
sg8
(dp762
g10
F3.91
sg11
F1.95
sg12
F1.54
ssg13
g24
sbsI240
(iasset
Asset
p763
(dp764
g3
g40
sg5
I929
sg6
g7
sg8
(dp765
g10
F3.16
sg11
F3.16
sg12
F1.41
ssg13
g24
sbsI241
(iasset
Asset
p766
(dp767
g3
g40
sg5
I419
sg6
g7
sg8
(dp768
g10
F2.83
sg11
F3.04
sg12
F1.37
ssg13
g24
sbsI242
(iasset
Asset
p769
(dp770
g3
g40
sg5
I599
sg6
g7
sg8
(dp771
g10
I3
sg11
I3
sg12
F1.33
ssg13
g24
sbsI243
(iasset
Asset
p772
(dp773
g3
VWall Shelves
p774
sg5
F63.99
sg6
g7
sg8
(dp775
g10
F1.75
sg11
F0.33
sg12
F2.08
ssg13
g76
sbsI244
(iasset
Asset
p776
(dp777
g3
g774
sg5
F63.99
sg6
g7
sg8
(dp778
g10
F1.75
sg11
F0.33
sg12
F2.08
ssg13
g76
sbsI245
(iasset
Asset
p779
(dp780
g3
g774
sg5
F37.99
sg6
g7
sg8
(dp781
g10
F0.83
sg11
F0.33
sg12
F1.91
ssg13
g76
sbsI246
(iasset
Asset
p782
(dp783
g3
g656
sg5
F1286.33
sg6
g7
sg8
(dp784
g10
I4
sg11
I4
sg12
F2.45
ssg13
g381
sbsI247
(iasset
Asset
p785
(dp786
g3
g656
sg5
F1071.76
sg6
g7
sg8
(dp787
g10
F4.58
sg11
F2.95
sg12
F2.5
ssg13
g381
sbsI248
(iasset
Asset
p788
(dp789
g3
g40
sg5
F427.75
sg6
g7
sg8
(dp790
g10
F2.62
sg11
F2.62
sg12
F1.27
ssg13
g24
sbsI249
(iasset
Asset
p791
(dp792
g3
VPoufs
p793
sg5
F120.29
sg6
g7
sg8
(dp794
g10
F2.45
sg11
F2.45
sg12
F1.5
ssg13
g14
sbsI250
(iasset
Asset
p795
(dp796
g3
g85
sg5
F141.6
sg6
g7
sg8
(dp797
g10
F1.58
sg11
F1.95
sg12
F3.16
ssg13
g14
sbsI251
(iasset
Asset
p798
(dp799
g3
g104
sg5
F165.99
sg6
g7
sg8
(dp800
g10
F5.25
sg11
I1
sg12
F3.41
ssg13
g106
sbsI252
(iasset
Asset
p801
(dp802
g3
g104
sg5
F130.22
sg6
g7
sg8
(dp803
g10
F4.83
sg11
F1.33
sg12
F2.08
ssg13
g106
sbsI253
(iasset
Asset
p804
(dp805
g3
g30
sg5
F600.99
sg6
g7
sg8
(dp806
g10
F7.33
sg11
F3.08
sg12
F3.08
ssg13
g32
sbsI254
(iasset
Asset
p807
(dp808
g3
g728
sg5
I326
sg6
g7
sg8
(dp809
g10
I5
sg11
F1.16
sg12
F1.5
ssg13
g14
sbsI255
(iasset
Asset
p810
(dp811
g3
g85
sg5
F92.99
sg6
g7
sg8
(dp812
g10
F2.14
sg11
I2
sg12
F2.8
ssg13
g14
sbsI256
(iasset
Asset
p813
(dp814
g3
g85
sg5
F110.02
sg6
g7
sg8
(dp815
g10
F2.04
sg11
F2.1667
sg12
F2.83
ssg13
g14
sbsI257
(iasset
Asset
p816
(dp817
g3
g40
sg5
I450
sg6
g7
sg8
(dp818
g10
F3.91
sg11
F2.58
sg12
F1.37
ssg13
g24
sbsI258
(iasset
Asset
p819
(dp820
g3
g85
sg5
F233.99
sg6
g7
sg8
(dp821
g10
F2.27
sg11
F2.44
sg12
F2.69
ssg13
g14
sbsI259
(iasset
Asset
p822
(dp823
g3
g774
sg5
I87
sg6
g7
sg8
(dp824
g10
F2.99
sg11
I1
sg12
F2.46
ssg13
g76
sbsI260
(iasset
Asset
p825
(dp826
g3
g774
sg5
I46
sg6
g7
sg8
(dp827
g10
I2
sg11
F0.45
sg12
F0.16
ssg13
g76
sbsI261
(iasset
Asset
p828
(dp829
g3
g40
sg5
I188
sg6
g7
sg8
(dp830
g10
F2.95
sg11
F2.95
sg12
F1.05
ssg13
g24
sbsI262
(iasset
Asset
p831
(dp832
g3
g40
sg5
I516
sg6
g7
sg8
(dp833
g10
F5.33
sg11
I3
sg12
F1.66
ssg13
g24
sbsI263
(iasset
Asset
p834
(dp835
g3
g40
sg5
F153.99
sg6
g7
sg8
(dp836
g10
F1.5
sg11
F1.5
sg12
F1.18
ssg13
g24
sbsI264
(iasset
Asset
p837
(dp838
g3
g104
sg5
I272
sg6
g7
sg8
(dp839
g10
F4.44
sg11
F1.5
sg12
F2.49
ssg13
g106
sbsI265
(iasset
Asset
p840
(dp841
g3
g104
sg5
I1379
sg6
g7
sg8
(dp842
g10
F5.5
sg11
F1.44
sg12
F3.2
ssg13
g106
sbsI266
(iasset
Asset
p843
(dp844
g3
g793
sg5
F79.95
sg6
g7
sg8
(dp845
g10
F1.667
sg11
F1.667
sg12
F1.167
ssg13
g14
sbsI267
(iasset
Asset
p846
(dp847
g3
g724
sg5
I0
sg6
g7
sg8
(dp848
g10
F2.46
sg11
F2.46
sg12
F2.62
ssg13
g14
sbsI268
(iasset
Asset
p849
(dp850
g3
g85
sg5
F149.99
sg6
g7
sg8
(dp851
g10
F1.75
sg11
F2.25
sg12
F3.41
ssg13
g14
sbsI269
(iasset
Asset
p852
(dp853
g3
g85
sg5
F299.99
sg6
g7
sg8
(dp854
g10
F1.75
sg11
F2.25
sg12
F3.41
ssg13
g14
sbsI270
(iasset
Asset
p855
(dp856
g3
g85
sg5
F193.99
sg6
g7
sg8
(dp857
g10
F1.91
sg11
F2.33
sg12
F2.91
ssg13
g14
sbsI271
(iasset
Asset
p858
(dp859
g3
g85
sg5
F193.99
sg6
g7
sg8
(dp860
g10
F2.91
sg11
F2.33
sg12
F2.83
ssg13
g14
sbsI272
(iasset
Asset
p861
(dp862
g3
g85
sg5
F193.99
sg6
g7
sg8
(dp863
g10
F1.91
sg11
F2.33
sg12
F2.83
ssg13
g14
sbsI273
(iasset
Asset
p864
(dp865
g3
g85
sg5
F138.99
sg6
g7
sg8
(dp866
g10
F2.08
sg11
F2.31
sg12
F2.75
ssg13
g14
sbsI274
(iasset
Asset
p867
(dp868
g3
g85
sg5
F157.99
sg6
g7
sg8
(dp869
g10
F2.08
sg11
F2.31
sg12
F2.77
ssg13
g14
sbsI275
(iasset
Asset
p870
(dp871
g3
g85
sg5
F141.99
sg6
g7
sg8
(dp872
g10
F2.08
sg11
F2.31
sg12
F2.77
ssg13
g14
sbsI276
(iasset
Asset
p873
(dp874
g3
g85
sg5
F187.99
sg6
g7
sg8
(dp875
g10
F1.8
sg11
F2.49
sg12
F2.71
ssg13
g14
sbsI277
(iasset
Asset
p876
(dp877
g3
g35
sg5
I303
sg6
g7
sg8
(dp878
g10
I2
sg11
F1.5
sg12
F4.41
ssg13
g37
sbsI278
(iasset
Asset
p879
(dp880
g3
g35
sg5
I450
sg6
g7
sg8
(dp881
g10
F3.5
sg11
F1.5
sg12
F3.16
ssg13
g37
sbsI279
(iasset
Asset
p882
(dp883
g3
g22
sg5
F132.99
sg6
g7
sg8
(dp884
g10
F1.6
sg11
F1.08
sg12
F2.23
ssg13
g24
sbsI280
(iasset
Asset
p885
(dp886
g3
g22
sg5
F132.99
sg6
g7
sg8
(dp887
g10
F1.6
sg11
F1.08
sg12
F2.23
ssg13
g24
sbsI281
(iasset
Asset
p888
(dp889
g3
g22
sg5
F132.99
sg6
g7
sg8
(dp890
g10
F1.6
sg11
F1.08
sg12
F2.23
ssg13
g24
sbsI282
(iasset
Asset
p891
(dp892
g3
g35
sg5
I450
sg6
g7
sg8
(dp893
g10
F3.5
sg11
F1.5
sg12
F3.16
ssg13
g37
sbsI283
(iasset
Asset
p894
(dp895
g3
g22
sg5
F132.99
sg6
g7
sg8
(dp896
g10
F1.6
sg11
F1.08
sg12
F2.23
ssg13
g24
sbsI284
(iasset
Asset
p897
(dp898
g3
g35
sg5
I640
sg6
g7
sg8
(dp899
g10
I4
sg11
F1.43
sg12
F3.33
ssg13
g37
sbsI285
(iasset
Asset
p900
(dp901
g3
g22
sg5
F132.99
sg6
g7
sg8
(dp902
g10
F1.5
sg11
F1.08
sg12
F2.23
ssg13
g24
sbsI286
(iasset
Asset
p903
(dp904
g3
g22
sg5
F369.99
sg6
g7
sg8
(dp905
g10
F2.61
sg11
F1.667
sg12
F2.5
ssg13
g24
sbsI287
(iasset
Asset
p906
(dp907
g3
g35
sg5
I640
sg6
g7
sg8
(dp908
g10
I4
sg11
F1.18
sg12
F3.33
ssg13
g37
sbsI288
(iasset
Asset
p909
(dp910
g3
g22
sg5
F369.99
sg6
g7
sg8
(dp911
g10
F2.61
sg11
F1.667
sg12
F2.5
ssg13
g24
sbsI289
(iasset
Asset
p912
(dp913
g3
g22
sg5
F409.99
sg6
g7
sg8
(dp914
g10
F2.41
sg11
F1.41
sg12
F2.46
ssg13
g24
sbsI290
(iasset
Asset
p915
(dp916
g3
g35
sg5
I670
sg6
g7
sg8
(dp917
g10
F2.91
sg11
F1.66
sg12
F4.02
ssg13
g37
sbsI291
(iasset
Asset
p918
(dp919
g3
g22
sg5
F345.99
sg6
g7
sg8
(dp920
g10
F2.41
sg11
F1.41
sg12
F2.46
ssg13
g24
sbsI292
(iasset
Asset
p921
(dp922
g3
g35
sg5
I538
sg6
g7
sg8
(dp923
g10
F4.25
sg11
F1.66
sg12
I3
ssg13
g37
sbsI293
(iasset
Asset
p924
(dp925
g3
g22
sg5
F309.99
sg6
g7
sg8
(dp926
g10
F2.41
sg11
F1.33
sg12
F3.54
ssg13
g24
sbsI294
(iasset
Asset
p927
(dp928
g3
g35
sg5
I629
sg6
g7
sg8
(dp929
g10
F5.5
sg11
F1.5
sg12
F3.41
ssg13
g37
sbsI295
(iasset
Asset
p930
(dp931
g3
g22
sg5
F337.99
sg6
g7
sg8
(dp932
g10
F2.41
sg11
F1.375
sg12
F2.54
ssg13
g24
sbsI296
(iasset
Asset
p933
(dp934
g3
g22
sg5
F160.99
sg6
g7
sg8
(dp935
g10
I2
sg11
F1.33
sg12
I2
ssg13
g24
sbsI297
(iasset
Asset
p936
(dp937
g3
g35
sg5
I739
sg6
g7
sg8
(dp938
g10
F5.1
sg11
F1.54
sg12
F3.35
ssg13
g37
sbsI298
(iasset
Asset
p939
(dp940
g3
g22
sg5
F299.99
sg6
g7
sg8
(dp941
g10
F2.58
sg11
F1.33
sg12
F2.5
ssg13
g24
sbsI299
(iasset
Asset
p942
(dp943
g3
g22
sg5
F302.99
sg6
g7
sg8
(dp944
g10
F2.58
sg11
F1.33
sg12
F2.5
ssg13
g24
sbsI300
(iasset
Asset
p945
(dp946
g3
g35
sg5
I650
sg6
g7
sg8
(dp947
g10
F4.5
sg11
F1.5
sg12
F3.33
ssg13
g37
sbsI301
(iasset
Asset
p948
(dp949
g3
g22
sg5
F369.99
sg6
g7
sg8
(dp950
g10
F2.5
sg11
F1.41
sg12
F2.5
ssg13
g24
sbsI302
(iasset
Asset
p951
(dp952
g3
g22
sg5
F187.99
sg6
g7
sg8
(dp953
g10
F2.21
sg11
F1.62
sg12
F2.14
ssg13
g24
sbsI303
(iasset
Asset
p954
(dp955
g3
g22
sg5
F166.99
sg6
g7
sg8
(dp956
g10
F2.21
sg11
F1.62
sg12
F2.14
ssg13
g24
sbsI304
(iasset
Asset
p957
(dp958
g3
g44
sg5
F166.99
sg6
g7
sg8
(dp959
g10
F2.21
sg11
F1.62
sg12
F2.14
ssg13
g24
sbsI305
(iasset
Asset
p960
(dp961
g3
g35
sg5
I730
sg6
g7
sg8
(dp962
g10
F4.83
sg11
F0.08
sg12
F2.83
ssg13
g37
sbsI306
(iasset
Asset
p963
(dp964
g3
g22
sg5
F166.99
sg6
g7
sg8
(dp965
g10
F2.21
sg11
F1.62
sg12
F2.14
ssg13
g24
sbsI307
(iasset
Asset
p966
(dp967
g3
g22
sg5
F118.99
sg6
g7
sg8
(dp968
g10
F1.33
sg11
F1.33
sg12
F2.41
ssg13
g24
sbsI308
(iasset
Asset
p969
(dp970
g3
g35
sg5
I849
sg6
g7
sg8
(dp971
g10
F3.5
sg11
F1.58
sg12
F4.5
ssg13
g37
sbsI309
(iasset
Asset
p972
(dp973
g3
g22
sg5
F346.99
sg6
g7
sg8
(dp974
g10
F2.08
sg11
F1.5
sg12
F2.25
ssg13
g24
sbsI310
(iasset
Asset
p975
(dp976
g3
g22
sg5
F319.99
sg6
g7
sg8
(dp977
g10
F2.08
sg11
F1.5
sg12
F2.25
ssg13
g24
sbsI311
(iasset
Asset
p978
(dp979
g3
g35
sg5
I400
sg6
g7
sg8
(dp980
g10
F2.54
sg11
F1.45
sg12
F3.29
ssg13
g37
sbsI312
(iasset
Asset
p981
(dp982
g3
g22
sg5
F434.99
sg6
g7
sg8
(dp983
g10
F1.833
sg11
F1.58
sg12
F2.5
ssg13
g24
sbsI313
(iasset
Asset
p984
(dp985
g3
g720
sg5
I189
sg6
g7
sg8
(dp986
g10
F1.81
sg11
F1.56
sg12
F3.7
ssg13
g14
sbsI314
(iasset
Asset
p987
(dp988
g3
VBar Stools
p989
sg5
I224
sg6
g7
sg8
(dp990
g10
F1.91
sg11
F1.91
sg12
F3.29
ssg13
g14
sbsI315
(iasset
Asset
p991
(dp992
g3
g989
sg5
I126
sg6
g7
sg8
(dp993
g10
F1.47
sg11
F1.76
sg12
F3.18
ssg13
g14
sbsI316
(iasset
Asset
p994
(dp995
g3
g40
sg5
F297.99
sg6
g7
sg8
(dp996
g10
I3
sg11
I3
sg12
F1.667
ssg13
g24
sbsI317
(iasset
Asset
p997
(dp998
g3
g989
sg5
I124
sg6
g7
sg8
(dp999
g10
F1.33
sg11
F1.33
sg12
I2
ssg13
g14
sbsI318
(iasset
Asset
p1000
(dp1001
g3
g989
sg5
I193
sg6
g7
sg8
(dp1002
g10
F1.33
sg11
F1.33
sg12
I2
ssg13
g14
sbsI319
(iasset
Asset
p1003
(dp1004
g3
g40
sg5
F186.99
sg6
g7
sg8
(dp1005
g10
I4
sg11
I2
sg12
F1.5
ssg13
g24
sbsI320
(iasset
Asset
p1006
(dp1007
g3
g989
sg5
I224
sg6
g7
sg8
(dp1008
g10
F1.66
sg11
F1.52
sg12
F2.58
ssg13
g14
sbsI321
(iasset
Asset
p1009
(dp1010
g3
g989
sg5
I155
sg6
g7
sg8
(dp1011
g10
F1.5
sg11
F1.58
sg12
F3.58
ssg13
g14
sbsI322
(iasset
Asset
p1012
(dp1013
g3
g40
sg5
F214.99
sg6
g7
sg8
(dp1014
g10
F2.625
sg11
F2.625
sg12
F1.12
ssg13
g24
sbsI323
(iasset
Asset
p1015
(dp1016
g3
g989
sg5
I133
sg6
g7
sg8
(dp1017
g10
F1.5
sg11
F1.58
sg12
F3.16
ssg13
g14
sbsI324
(iasset
Asset
p1018
(dp1019
g3
g989
sg5
I135
sg6
g7
sg8
(dp1020
g10
F1.5
sg11
F1.32
sg12
F3.19
ssg13
g14
sbsI325
(iasset
Asset
p1021
(dp1022
g3
g989
sg5
I130
sg6
g7
sg8
(dp1023
g10
F1.58
sg11
F1.7
sg12
F2.87
ssg13
g14
sbsI326
(iasset
Asset
p1024
(dp1025
g3
g30
sg5
I960
sg6
g7
sg8
(dp1026
g10
F7.54
sg11
F3.03
sg12
F2.44
ssg13
g32
sbsI327
(iasset
Asset
p1027
(dp1028
g3
g681
sg5
I1350
sg6
g7
sg8
(dp1029
g10
F4.75
sg11
F3.5
sg12
I3
ssg13
g32
sbsI328
(iasset
Asset
p1030
(dp1031
g3
g681
sg5
I1347
sg6
g7
sg8
(dp1032
g10
F4.75
sg11
F3.5
sg12
I3
ssg13
g32
sbsI329
(iasset
Asset
p1033
(dp1034
g3
g40
sg5
F474.99
sg6
g7
sg8
(dp1035
g10
I3
sg11
I3
sg12
F1.6
ssg13
g24
sbsI330
(iasset
Asset
p1036
(dp1037
g3
g40
sg5
F315.99
sg6
g7
sg8
(dp1038
g10
F2.25
sg11
F2.25
sg12
F1.6
ssg13
g24
sbsI331
(iasset
Asset
p1039
(dp1040
g3
g681
sg5
I410
sg6
g7
sg8
(dp1041
g10
F2.08
sg11
F2.33
sg12
F3.33
ssg13
g32
sbsI332
(iasset
Asset
p1042
(dp1043
g3
g40
sg5
F183.99
sg6
g7
sg8
(dp1044
g10
F2.39
sg11
F1.625
sg12
F1.64
ssg13
g24
sbsI333
(iasset
Asset
p1045
(dp1046
g3
g30
sg5
I1480
sg6
g7
sg8
(dp1047
g10
F7.33
sg11
F3.33
sg12
F3.08
ssg13
g32
sbsI334
(iasset
Asset
p1048
(dp1049
g3
g30
sg5
I1480
sg6
g7
sg8
(dp1050
g10
F7.33
sg11
F3.33
sg12
F3.08
ssg13
g32
sbsI335
(iasset
Asset
p1051
(dp1052
g3
g30
sg5
I720
sg6
g7
sg8
(dp1053
g10
F6.22
sg11
F2.83
sg12
F2.87
ssg13
g32
sbsI336
(iasset
Asset
p1054
(dp1055
g3
g40
sg5
F559.99
sg6
g7
sg8
(dp1056
g10
I4
sg11
I2
sg12
F1.41
ssg13
g24
sbsI337
(iasset
Asset
p1057
(dp1058
g3
g146
sg5
I372
sg6
g7
sg8
(dp1059
g10
F6.23
sg11
F2.85
sg12
F2.65
ssg13
g32
sbsI338
(iasset
Asset
p1060
(dp1061
g3
V4 Door Wardrobes
p1062
sg5
I0
sg6
g7
sg8
(dp1063
g10
I6
sg11
I2
sg12
I10
ssg13
VWardrobes
p1064
sbsI339
(iasset
Asset
p1065
(dp1066
g3
g30
sg5
I740
sg6
g7
sg8
(dp1067
g10
F6.62
sg11
F2.79
sg12
F2.62
ssg13
g32
sbsI340
(iasset
Asset
p1068
(dp1069
g3
g30
sg5
I1450
sg6
g7
sg8
(dp1070
g10
F7.33
sg11
F3.08
sg12
F2.83
ssg13
g32
sbsI341
(iasset
Asset
p1071
(dp1072
g3
g30
sg5
I1450
sg6
g7
sg8
(dp1073
g10
F7.33
sg11
F3.08
sg12
F2.83
ssg13
g32
sbsI342
(iasset
Asset
p1074
(dp1075
g3
S''
p1076
sg5
I529
sg6
g7
sg8
(dp1077
g10
F7.34
sg11
F3.11
sg12
F2.88
ssg13
g1076
sbsI343
(iasset
Asset
p1078
(dp1079
g3
g35
sg5
I3695
sg6
g7
sg8
(dp1080
g10
F5.75
sg11
F1.667
sg12
F2.91
ssg13
g37
sbsI344
(iasset
Asset
p1081
(dp1082
g3
g17
sg5
I2996
sg6
g7
sg8
(dp1083
g10
F5.58
sg11
F7.16
sg12
I4
ssg13
g19
sbsI345
(iasset
Asset
p1084
(dp1085
g3
g22
sg5
I1945
sg6
g7
sg8
(dp1086
g10
F2.4
sg11
F1.67
sg12
F1.91
ssg13
g24
sbsI346
(iasset
Asset
p1087
(dp1088
g3
g17
sg5
I4950
sg6
g7
sg8
(dp1089
g10
I6
sg11
F8.08
sg12
F4.75
ssg13
g19
sbsI347
(iasset
Asset
p1090
(dp1091
g3
g85
sg5
I19
sg6
g7
sg8
(dp1092
g10
F2.33
sg11
F2.5
sg12
F2.87
ssg13
g14
sbsI348
(iasset
Asset
p1093
(dp1094
g3
g35
sg5
I42
sg6
g7
sg8
(dp1095
g10
F2.66
sg11
F1.33
sg12
F4.58
ssg13
g37
sbsI349
(iasset
Asset
p1096
(dp1097
g3
g22
sg5
I18
sg6
g7
sg8
(dp1098
g10
F1.83
sg11
F1.33
sg12
F2.16
ssg13
g24
sbsI350
(iasset
Asset
p1099
(dp1100
g3
g30
sg5
I64
sg6
g7
sg8
(dp1101
g10
F5.8
sg11
F2.72
sg12
F2.69
ssg13
g32
sbsI351
(iasset
Asset
p1102
(dp1103
g3
g54
sg5
I35
sg6
g7
sg8
(dp1104
g10
I4
sg11
F1.25
sg12
F2.49
ssg13
g24
sbsI352
(iasset
Asset
p1105
(dp1106
g3
g426
sg5
I12
sg6
g7
sg8
(dp1107
g10
F1.7
sg11
I2
sg12
F3.33
ssg13
g381
sbsI353
(iasset
Asset
p1108
(dp1109
g3
g379
sg5
I59
sg6
g7
sg8
(dp1110
g10
F4.52
sg11
F4.52
sg12
F2.55
ssg13
g381
sbsI354
(iasset
Asset
p1111
(dp1112
g3
g17
sg5
I32
sg6
g7
sg8
(dp1113
g10
F5.31
sg11
F7.16
sg12
F3.93
ssg13
g19
sbsI355
(iasset
Asset
p1114
(dp1115
g3
g40
sg5
I46
sg6
g7
sg8
(dp1116
g10
F3.91
sg11
F2.15
sg12
F1.25
ssg13
g24
sbsI356
(iasset
Asset
p1117
(dp1118
g3
VNested Tables
p1119
sg5
I26
sg6
g7
sg8
(dp1120
g10
F1.64
sg11
F1.64
sg12
F1.49
ssg13
g24
sbsI357
(iasset
Asset
p1121
(dp1122
g3
VStudy Tables
p1123
sg5
I850
sg6
g7
sg8
(dp1124
g10
F4.58
sg11
F1.91
sg12
F2.5
ssg13
g24
sbsI358
(iasset
Asset
p1125
(dp1126
g3
VOffice Chairs
p1127
sg5
I1195
sg6
g7
sg8
(dp1128
g10
F2.25
sg11
F2.08
sg12
F2.75
ssg13
g14
sbsI359
(iasset
Asset
p1129
(dp1130
g3
g1127
sg5
I695
sg6
g7
sg8
(dp1131
g10
F1.667
sg11
F2.08
sg12
F3.41
ssg13
g14
sbsI360
(iasset
Asset
p1132
(dp1133
g3
VBean Bags
p1134
sg5
I279
sg6
g7
sg8
(dp1135
g10
F4.58
sg11
F4.58
sg12
I2
ssg13
g14
sbsI361
(iasset
Asset
p1136
(dp1137
g3
g1134
sg5
I279
sg6
g7
sg8
(dp1138
g10
F4.58
sg11
F4.58
sg12
I2
ssg13
g14
sbsI362
(iasset
Asset
p1139
(dp1140
g3
g1134
sg5
I279
sg6
g7
sg8
(dp1141
g10
F4.58
sg11
F4.58
sg12
I2
ssg13
g14
sbsI363
(iasset
Asset
p1142
(dp1143
g3
g40
sg5
I1895
sg6
g7
sg8
(dp1144
g10
F4.5
sg11
F4.5
sg12
F1.33
ssg13
g24
sbsI364
(iasset
Asset
p1145
(dp1146
g3
g40
sg5
I1895
sg6
g7
sg8
(dp1147
g10
F4.5
sg11
F4.5
sg12
F1.33
ssg13
g24
sbsI365
(iasset
Asset
p1148
(dp1149
g3
g17
sg5
I4695
sg6
g7
sg8
(dp1150
g10
F6.5
sg11
F7.5
sg12
F3.167
ssg13
g19
sbsI366
(iasset
Asset
p1151
(dp1152
g3
g40
sg5
I2350
sg6
g7
sg8
(dp1153
g10
F4.58
sg11
F2.66
sg12
F1.25
ssg13
g24
sbsI367
(iasset
Asset
p1154
(dp1155
g3
g17
sg5
I5195
sg6
g7
sg8
(dp1156
g10
F7.33
sg11
F8.08
sg12
F3.58
ssg13
g19
sbsI368
(iasset
Asset
p1157
(dp1158
g3
g30
sg5
I7895
sg6
g7
sg8
(dp1159
g10
I6
sg11
F3.16
sg12
F2.66
ssg13
g32
sbsI369
(iasset
Asset
p1160
(dp1161
g3
g85
sg5
I395
sg6
g7
sg8
(dp1162
g10
F2.08
sg11
F2.41
sg12
F2.5
ssg13
g14
sbsI370
(iasset
Asset
p1163
(dp1164
g3
VPartitions
p1165
sg5
I0
sg6
g7
sg8
(dp1166
g10
I6
sg11
F0.5
sg12
I7
ssg13
VPartitions
p1167
sbsI371
(iasset
Asset
p1168
(dp1169
g3
g379
sg5
I4095
sg6
g7
sg8
(dp1170
g10
I7
sg11
F3.33
sg12
F2.5
ssg13
g381
sbsI372
(iasset
Asset
p1171
(dp1172
g3
g379
sg5
I3495
sg6
g7
sg8
(dp1173
g10
I7
sg11
F2.5
sg12
I3
ssg13
g381
sbsI373
(iasset
Asset
p1174
(dp1175
g3
g74
sg5
I3095
sg6
g7
sg8
(dp1176
g10
F3.667
sg11
I2
sg12
F6.41
ssg13
g76
sbsI374
(iasset
Asset
p1177
(dp1178
g3
g74
sg5
I2195
sg6
g7
sg8
(dp1179
g10
F3.167
sg11
F1.5
sg12
F6.4
ssg13
g76
sbsI375
(iasset
Asset
p1180
(dp1181
g3
g85
sg5
I1695
sg6
g7
sg8
(dp1182
g10
F2.9
sg11
F2.9
sg12
F2.5
ssg13
g14
sbsI376
(iasset
Asset
p1183
(dp1184
g3
g989
sg5
I297
sg6
g7
sg8
(dp1185
g10
F1.25
sg11
F1.25
sg12
F2.41
ssg13
g14
sbsI377
(iasset
Asset
p1186
(dp1187
g3
VBar tables
p1188
sg5
I995
sg6
g7
sg8
(dp1189
g10
F5.33
sg11
I2
sg12
I3
ssg13
g24
sbsI378
(iasset
Asset
p1190
(dp1191
g3
g1165
sg5
I0
sg6
g7
sg8
(dp1192
g10
F13.5
sg11
I3
sg12
I7
ssg13
g1167
sbsI379
(iasset
Asset
p1193
(dp1194
g3
g728
sg5
I1795
sg6
g7
sg8
(dp1195
g10
F7.91
sg11
F1.25
sg12
F1.5
ssg13
g14
sbsI380
(iasset
Asset
p1196
(dp1197
g3
g544
sg5
I795
sg6
g7
sg8
(dp1198
g10
F2.66
sg11
F1.91
sg12
F6.91
ssg13
g76
sbsI381
(iasset
Asset
p1199
(dp1200
g3
g544
sg5
I995
sg6
g7
sg8
(dp1201
g10
F2.29
sg11
F1.58
sg12
F6.45
ssg13
g76
sbsI382
(iasset
Asset
p1202
(dp1203
g3
g85
sg5
I3195
sg6
g7
sg8
(dp1204
g10
F2.75
sg11
F2.66
sg12
F5.08
ssg13
g14
sbsI383
(iasset
Asset
p1205
(dp1206
g3
g85
sg5
I850
sg6
g7
sg8
(dp1207
g10
F2.16
sg11
F2.25
sg12
F2.33
ssg13
g14
sbsI384
(iasset
Asset
p1208
(dp1209
g3
g379
sg5
I3515
sg6
g7
sg8
(dp1210
g10
I10
sg11
F3.33
sg12
F2.5
ssg13
g381
sbsI385
(iasset
Asset
p1211
(dp1212
g3
g379
sg5
I4095
sg6
g7
sg8
(dp1213
g10
I10
sg11
F3.33
sg12
F2.5
ssg13
g381
sbsI386
(iasset
Asset
p1214
(dp1215
g3
g35
sg5
I1040
sg6
g7
sg8
(dp1216
g10
F4.5
sg11
F1.5
sg12
F2.67
ssg13
g37
sbsI387
(iasset
Asset
p1217
(dp1218
g3
g426
sg5
I247
sg6
g7
sg8
(dp1219
g10
F1.66
sg11
I2
sg12
F3.16
ssg13
g381
sbsI388
(iasset
Asset
p1220
(dp1221
g3
g426
sg5
I595
sg6
g7
sg8
(dp1222
g10
F1.75
sg11
F1.78
sg12
F2.75
ssg13
g381
sbsI389
(iasset
Asset
p1223
(dp1224
g3
g30
sg5
I10295
sg6
g7
sg8
(dp1225
g10
I6
sg11
F2.83
sg12
F2.58
ssg13
g32
sbsI390
(iasset
Asset
p1226
(dp1227
g3
g22
sg5
I320
sg6
g7
sg8
(dp1228
g10
F1.5
sg11
F1.5
sg12
I2
ssg13
g24
sbsI391
(iasset
Asset
p1229
(dp1230
g3
g17
sg5
F118.32
sg6
g7
sg8
(dp1231
g10
F4.58
sg11
F6.48
sg12
F4.04
ssg13
g19
sbsI392
(iasset
Asset
p1232
(dp1233
g3
g44
sg5
F79.99
sg6
g7
sg8
(dp1234
g10
F1.65
sg11
F1.32
sg12
F2.25
ssg13
g24
sbsI393
(iasset
Asset
p1235
(dp1236
g3
g774
sg5
F31.99
sg6
g7
sg8
(dp1237
g10
F2.95
sg11
F0.375
sg12
F0.29
ssg13
g76
sbsI394
(iasset
Asset
p1238
(dp1239
g3
g40
sg5
I570
sg6
g7
sg8
(dp1240
g10
F2.66
sg11
F2.66
sg12
F1.16
ssg13
g24
sbsI395
(iasset
Asset
p1241
(dp1242
g3
g426
sg5
I113
sg6
g7
sg8
(dp1243
g10
F1.6
sg11
F1.64
sg12
F3.18
ssg13
g381
sbsI396
(iasset
Asset
p1244
(dp1245
g3
g17
sg5
F519.99
sg6
g7
sg8
(dp1246
g10
F5.75
sg11
F7.4
sg12
I4
ssg13
g19
sbsI397
(iasset
Asset
p1247
(dp1248
g3
g22
sg5
I1250
sg6
g7
sg8
(dp1249
g10
F1.58
sg11
F1.58
sg12
F1.58
ssg13
g24
sbsI398
(iasset
Asset
p1250
(dp1251
g3
g22
sg5
I1250
sg6
g7
sg8
(dp1252
g10
F1.58
sg11
F1.58
sg12
F1.58
ssg13
g24
sbsI399
(iasset
Asset
p1253
(dp1254
g3
g22
sg5
I1250
sg6
g7
sg8
(dp1255
g10
F1.58
sg11
F1.58
sg12
F1.58
ssg13
g24
sbsI400
(iasset
Asset
p1256
(dp1257
g3
g17
sg5
I680
sg6
g7
sg8
(dp1258
g10
F5.52
sg11
F7.12
sg12
F4.41
ssg13
g19
sbsI401
(iasset
Asset
p1259
(dp1260
g3
VCafe Chairs
p1261
sg5
I124
sg6
g7
sg8
(dp1262
g10
F1.5
sg11
F1.75
sg12
F2.83
ssg13
g14
sbsI402
(iasset
Asset
p1263
(dp1264
g3
g1134
sg5
I104
sg6
g7
sg8
(dp1265
g10
I4
sg11
I4
sg12
F2.8
ssg13
g14
sbsI403
(iasset
Asset
p1266
(dp1267
g3
g544
sg5
I440
sg6
g7
sg8
(dp1268
g10
F3.33
sg11
F1.5
sg12
F5.25
ssg13
g76
sbsI404
(iasset
Asset
p1269
(dp1270
g3
g1123
sg5
I378
sg6
g7
sg8
(dp1271
g10
I5
sg11
F2.33
sg12
F2.5
ssg13
g24
sbsI405
(iasset
Asset
p1272
(dp1273
g3
g109
sg5
I0
sg6
g7
sg8
(dp1274
g10
I6
sg11
F2.33
sg12
F3.5
ssg13
g76
sbsI406
(iasset
Asset
p1275
(dp1276
g3
VKing Sized Beds
p1277
sg5
I12499
sg6
g7
sg8
(dp1278
g10
F6.08
sg11
F6.67
sg12
I3
ssg13
g19
sbsI407
(iasset
Asset
p1279
(dp1280
g3
V5 Door Wardrobes
p1281
sg5
I0
sg6
g7
sg8
(dp1282
g10
I14
sg11
I2
sg12
F9.5
ssg13
g1064
sbsI408
(iasset
Asset
p1283
(dp1284
g3
g1281
sg5
I0
sg6
g7
sg8
(dp1285
g10
I14
sg11
I2
sg12
F9.5
ssg13
g1064
sbsI409
(iasset
Asset
p1286
(dp1287
g3
g724
sg5
I1298
sg6
g7
sg8
(dp1288
g10
F2.22
sg11
F2.22
sg12
F2.2
ssg13
g14
sbsI410
(iasset
Asset
p1289
(dp1290
g3
g109
sg5
F829.99
sg6
g7
sg8
(dp1291
g10
I5
sg11
F1.58
sg12
F3.17
ssg13
g76
sbsI411
(iasset
Asset
p1292
(dp1293
g3
g426
sg5
F519.98
sg6
g7
sg8
(dp1294
g10
F2.18
sg11
F1.833
sg12
F3.5
ssg13
g381
sbsI412
(iasset
Asset
p1295
(dp1296
g3
g379
sg5
I4995
sg6
g7
sg8
(dp1297
g10
F3.33
sg11
I7
sg12
F2.5
ssg13
g381
sbsI413
(iasset
Asset
p1298
(dp1299
g3
g30
sg5
F1649.99
sg6
g7
sg8
(dp1300
g10
F7.91
sg11
F3.3
sg12
F2.54
ssg13
g32
sbsI414
(iasset
Asset
p1301
(dp1302
g3
g35
sg5
I1299
sg6
g7
sg8
(dp1303
g10
F4.83
sg11
F1.5
sg12
F2.67
ssg13
g37
sbsI415
(iasset
Asset
p1304
(dp1305
g3
g22
sg5
I320
sg6
g7
sg8
(dp1306
g10
F1.67
sg11
F1.5
sg12
F2.167
ssg13
g24
sbsI416
(iasset
Asset
p1307
(dp1308
g3
g17
sg5
I1200
sg6
g7
sg8
(dp1309
g10
F5.5
sg11
F7.08
sg12
F4.67
ssg13
g19
sbsI417
(iasset
Asset
p1310
(dp1311
g3
g109
sg5
I106
sg6
g7
sg8
(dp1312
g10
F2.5
sg11
F0.66
sg12
F5.5
ssg13
g76
sbsI418
(iasset
Asset
p1313
(dp1314
g3
g1188
sg5
I1590
sg6
g7
sg8
(dp1315
g10
I6
sg11
F2.33
sg12
F3.5
ssg13
g24
sbsI419
(iasset
Asset
p1316
(dp1317
g3
g162
sg5
F211.99
sg6
g7
sg8
(dp1318
g10
F2.91
sg11
F2.91
sg12
F1.54
ssg13
g14
sbsI420
(iasset
Asset
p1319
(dp1320
g3
g162
sg5
F369.99
sg6
g7
sg8
(dp1321
g10
F3.85
sg11
F2.33
sg12
F1.5
ssg13
g14
sbsI421
(iasset
Asset
p1322
(dp1323
g3
g1188
sg5
I367
sg6
g7
sg8
(dp1324
g10
F2.5
sg11
F2.5
sg12
F3.33
ssg13
g24
sbsI422
(iasset
Asset
p1325
(dp1326
g3
g989
sg5
I122
sg6
g7
sg8
(dp1327
g10
F1.41
sg11
F1.5
sg12
F3.91
ssg13
g14
sbsI423
(iasset
Asset
p1328
(dp1329
g3
g4
sg5
I839
sg6
g7
sg8
(dp1330
g10
F3.5
sg11
F3.33
sg12
F2.58
ssg13
g14
sbsI424
(iasset
Asset
p1331
(dp1332
g3
g989
sg5
I166
sg6
g7
sg8
(dp1333
g10
F1.55
sg11
F1.55
sg12
F2.52
ssg13
g14
sbsI425
(iasset
Asset
p1334
(dp1335
g3
g1123
sg5
I670
sg6
g7
sg8
(dp1336
g10
F5.24
sg11
F1.47
sg12
F2.42
ssg13
g24
sbsI426
(iasset
Asset
p1337
(dp1338
g3
g1127
sg5
F112.99
sg6
g7
sg8
(dp1339
g10
F1.73
sg11
F1.73
sg12
F1.9
ssg13
g14
sbsI427
(iasset
Asset
p1340
(dp1341
g3
g1127
sg5
F112.99
sg6
g7
sg8
(dp1342
g10
F1.73
sg11
F1.73
sg12
F1.9
ssg13
g14
sbsI428
(iasset
Asset
p1343
(dp1344
g3
g40
sg5
F165.99
sg6
g7
sg8
(dp1345
g10
F3.67
sg11
F1.83
sg12
F1.67
ssg13
g24
sbsI429
(iasset
Asset
p1346
(dp1347
g3
g4
sg5
F654.72
sg6
g7
sg8
(dp1348
g10
F3.33
sg11
F3.5
sg12
I3
ssg13
g14
sbsI430
(iasset
Asset
p1349
(dp1350
g3
g544
sg5
I240
sg6
g7
sg8
(dp1351
g10
F3.9
sg11
F0.95
sg12
F6.06
ssg13
g76
sbsI431
(iasset
Asset
p1352
(dp1353
g3
g4
sg5
F519.99
sg6
g7
sg8
(dp1354
g10
F3.25
sg11
F3.33
sg12
F2.58
ssg13
g14
sbsI432
(iasset
Asset
p1355
(dp1356
g3
g697
sg5
F326.24
sg6
g7
sg8
(dp1357
g10
F4.45
sg11
F2.52
sg12
F2.96
ssg13
g19
sbsI433
(iasset
Asset
p1358
(dp1359
g3
g1127
sg5
I134
sg6
g7
sg8
(dp1360
g10
F2.04
sg11
F1.97
sg12
F2.87
ssg13
g14
sbsI434
(iasset
Asset
p1361
(dp1362
g3
g707
sg5
F409.99
sg6
g7
sg8
(dp1363
g10
F2.79
sg11
F2.83
sg12
F2.96
ssg13
g14
sbsI435
(iasset
Asset
p1364
(dp1365
g3
g54
sg5
I105
sg6
g7
sg8
(dp1366
g10
F3.93
sg11
F0.75
sg12
F2.14
ssg13
g24
sbsI436
(iasset
Asset
p1367
(dp1368
g3
g1123
sg5
I0
sg6
g7
sg8
(dp1369
g10
I2
sg11
F1.5
sg12
F2.5
ssg13
g24
sbsI437
(iasset
Asset
p1370
(dp1371
g3
VBunk Beds
p1372
sg5
I0
sg6
g7
sg8
(dp1373
g10
I8
sg11
F6.46
sg12
F5.98
ssg13
g19
sbsI438
(iasset
Asset
p1374
(dp1375
g3
g1127
sg5
F179.29
sg6
g7
sg8
(dp1376
g10
F1.92
sg11
F2.23
sg12
F2.91
ssg13
g14
sbsI439
(iasset
Asset
p1377
(dp1378
g3
g1123
sg5
I349
sg6
g7
sg8
(dp1379
g10
F4.67
sg11
F2.33
sg12
F2.5
ssg13
g24
sbsI440
(iasset
Asset
p1380
(dp1381
g3
g162
sg5
I185
sg6
g7
sg8
(dp1382
g10
F2.41
sg11
F2.41
sg12
F1.54
ssg13
g14
sbsI441
(iasset
Asset
p1383
(dp1384
g3
g44
sg5
I111
sg6
g7
sg8
(dp1385
g10
F1.01
sg11
F1.01
sg12
F1.44
ssg13
g24
sbsI442
(iasset
Asset
p1386
(dp1387
g3
g40
sg5
I448
sg6
g7
sg8
(dp1388
g10
F2.91
sg11
F2.91
sg12
I1
ssg13
g24
sbsI443
(iasset
Asset
p1389
(dp1390
g3
g724
sg5
I506
sg6
g7
sg8
(dp1391
g10
F2.81
sg11
F2.5
sg12
F3.58
ssg13
g14
sbsI444
(iasset
Asset
p1392
(dp1393
g3
g74
sg5
I3595
sg6
g7
sg8
(dp1394
g10
F3.33
sg11
F1.66
sg12
F7.08
ssg13
g76
sbsI445
(iasset
Asset
p1395
(dp1396
g3
g544
sg5
I0
sg6
g7
sg8
(dp1397
g10
I3
sg11
I1
sg12
F1.5
ssg13
g76
sbsI446
(iasset
Asset
p1398
(dp1399
g3
g1372
sg5
I0
sg6
g7
sg8
(dp1400
g10
I3
sg11
I6
sg12
F1.5
ssg13
g19
sbsI447
(iasset
Asset
p1401
(dp1402
g3
g728
sg5
I117
sg6
g7
sg8
(dp1403
g10
F1.33
sg11
F3.66
sg12
F1.58
ssg13
g14
sbsI448
(iasset
Asset
p1404
(dp1405
g3
g85
sg5
I218
sg6
g7
sg8
(dp1406
g10
F1.5
sg11
F1.73
sg12
F2.67
ssg13
g14
sbsI449
(iasset
Asset
p1407
(dp1408
g3
g379
sg5
I271
sg6
g7
sg8
(dp1409
g10
I5
sg11
I3
sg12
F2.5
ssg13
g381
sbsI450
(iasset
Asset
p1410
(dp1411
g3
g85
sg5
I218
sg6
g7
sg8
(dp1412
g10
F1.52
sg11
F1.73
sg12
F2.6
ssg13
g14
sbs.